
/home/curry/code/ysyx_curry/am-kernels/kernels/demo/build/demo-riscv32-nemu.elf:     file format elf32-littleriscv


Disassembly of section .text:

80000000 <_start>:
80000000:	00000413          	li	s0,0
80000004:	00011117          	auipc	sp,0x11
80000008:	ffc10113          	addi	sp,sp,-4 # 80011000 <_end>
8000000c:	22c020ef          	jal	80002238 <_trm_init>

80000010 <ant>:
80000010:	fa010113          	addi	sp,sp,-96
80000014:	04812c23          	sw	s0,88(sp)
80000018:	05000793          	li	a5,80
8000001c:	00008417          	auipc	s0,0x8
80000020:	c6440413          	addi	s0,s0,-924 # 80007c80 <w>
80000024:	05412423          	sw	s4,72(sp)
80000028:	00f42023          	sw	a5,0(s0)
8000002c:	00008a17          	auipc	s4,0x8
80000030:	c4ca0a13          	addi	s4,s4,-948 # 80007c78 <h>
80000034:	01800793          	li	a5,24
80000038:	78000513          	li	a0,1920
8000003c:	00fa2023          	sw	a5,0(s4)
80000040:	04112e23          	sw	ra,92(sp)
80000044:	04912a23          	sw	s1,84(sp)
80000048:	05212823          	sw	s2,80(sp)
8000004c:	05512223          	sw	s5,68(sp)
80000050:	05612023          	sw	s6,64(sp)
80000054:	03712e23          	sw	s7,60(sp)
80000058:	03812c23          	sw	s8,56(sp)
8000005c:	03912a23          	sw	s9,52(sp)
80000060:	03a12823          	sw	s10,48(sp)
80000064:	05312623          	sw	s3,76(sp)
80000068:	03b12623          	sw	s11,44(sp)
8000006c:	399020ef          	jal	80002c04 <malloc>
80000070:	78000613          	li	a2,1920
80000074:	00000593          	li	a1,0
80000078:	00009917          	auipc	s2,0x9
8000007c:	d8890913          	addi	s2,s2,-632 # 80008e00 <pix>
80000080:	00a92023          	sw	a0,0(s2)
80000084:	41c020ef          	jal	800024a0 <memset>
80000088:	00003517          	auipc	a0,0x3
8000008c:	c4c50513          	addi	a0,a0,-948 # 80002cd4 <_etext>
80000090:	488020ef          	jal	80002518 <printf>
80000094:	000027b7          	lui	a5,0x2
80000098:	71078793          	addi	a5,a5,1808 # 2710 <_entry_offset+0x2710>
8000009c:	00c00a93          	li	s5,12
800000a0:	02800b13          	li	s6,40
800000a4:	00100d13          	li	s10,1
800000a8:	00000c93          	li	s9,0
800000ac:	02a00c13          	li	s8,42
800000b0:	00e00b93          	li	s7,14
800000b4:	00003497          	auipc	s1,0x3
800000b8:	c2c48493          	addi	s1,s1,-980 # 80002ce0 <_etext+0xc>
800000bc:	00f12623          	sw	a5,12(sp)
800000c0:	00042783          	lw	a5,0(s0)
800000c4:	00092703          	lw	a4,0(s2)
800000c8:	02fa87b3          	mul	a5,s5,a5
800000cc:	016787b3          	add	a5,a5,s6
800000d0:	00f707b3          	add	a5,a4,a5
800000d4:	0007c703          	lbu	a4,0(a5)
800000d8:	0e070463          	beqz	a4,800001c0 <ant+0x1b0>
800000dc:	41a00633          	neg	a2,s10
800000e0:	02000693          	li	a3,32
800000e4:	000c8d13          	mv	s10,s9
800000e8:	00000713          	li	a4,0
800000ec:	00060c93          	mv	s9,a2
800000f0:	000b8593          	mv	a1,s7
800000f4:	00e78023          	sb	a4,0(a5)
800000f8:	000c0613          	mv	a2,s8
800000fc:	00048513          	mv	a0,s1
80000100:	019b0b33          	add	s6,s6,s9
80000104:	414020ef          	jal	80002518 <printf>
80000108:	01aa8ab3          	add	s5,s5,s10
8000010c:	00042983          	lw	s3,0(s0)
80000110:	000a2b83          	lw	s7,0(s4)
80000114:	1c0b4c63          	bltz	s6,800002ec <ant+0x2dc>
80000118:	173b5263          	bge	s6,s3,8000027c <ant+0x26c>
8000011c:	0b7ade63          	bge	s5,s7,800001d8 <ant+0x1c8>
80000120:	1c0ac263          	bltz	s5,800002e4 <ant+0x2d4>
80000124:	01f00593          	li	a1,31
80000128:	00003517          	auipc	a0,0x3
8000012c:	bc450513          	addi	a0,a0,-1084 # 80002cec <_etext+0x18>
80000130:	3e8020ef          	jal	80002518 <printf>
80000134:	002b0c13          	addi	s8,s6,2
80000138:	002a8b93          	addi	s7,s5,2
8000013c:	02b00693          	li	a3,43
80000140:	000c0613          	mv	a2,s8
80000144:	000b8593          	mv	a1,s7
80000148:	00048513          	mv	a0,s1
8000014c:	3cc020ef          	jal	80002518 <printf>
80000150:	00000593          	li	a1,0
80000154:	00003517          	auipc	a0,0x3
80000158:	b9850513          	addi	a0,a0,-1128 # 80002cec <_etext+0x18>
8000015c:	3bc020ef          	jal	80002518 <printf>
80000160:	01810593          	addi	a1,sp,24
80000164:	00600513          	li	a0,6
80000168:	1e0020ef          	jal	80002348 <ioe_read>
8000016c:	00c12783          	lw	a5,12(sp)
80000170:	01812983          	lw	s3,24(sp)
80000174:	00f98db3          	add	s11,s3,a5
80000178:	01c12783          	lw	a5,28(sp)
8000017c:	013db9b3          	sltu	s3,s11,s3
80000180:	00f989b3          	add	s3,s3,a5
80000184:	01810593          	addi	a1,sp,24
80000188:	00600513          	li	a0,6
8000018c:	1bc020ef          	jal	80002348 <ioe_read>
80000190:	01c12783          	lw	a5,28(sp)
80000194:	01812703          	lw	a4,24(sp)
80000198:	ff37e6e3          	bltu	a5,s3,80000184 <ant+0x174>
8000019c:	f2f992e3          	bne	s3,a5,800000c0 <ant+0xb0>
800001a0:	ffb762e3          	bltu	a4,s11,80000184 <ant+0x174>
800001a4:	00042783          	lw	a5,0(s0)
800001a8:	00092703          	lw	a4,0(s2)
800001ac:	02fa87b3          	mul	a5,s5,a5
800001b0:	016787b3          	add	a5,a5,s6
800001b4:	00f707b3          	add	a5,a4,a5
800001b8:	0007c703          	lbu	a4,0(a5)
800001bc:	f20710e3          	bnez	a4,800000dc <ant+0xcc>
800001c0:	41900633          	neg	a2,s9
800001c4:	06f00693          	li	a3,111
800001c8:	000d0c93          	mv	s9,s10
800001cc:	00100713          	li	a4,1
800001d0:	00060d13          	mv	s10,a2
800001d4:	f1dff06f          	j	800000f0 <ant+0xe0>
800001d8:	00092c03          	lw	s8,0(s2)
800001dc:	fffb8b93          	addi	s7,s7,-1
800001e0:	033b8bb3          	mul	s7,s7,s3
800001e4:	013c05b3          	add	a1,s8,s3
800001e8:	000c0513          	mv	a0,s8
800001ec:	fffa8a93          	addi	s5,s5,-1
800001f0:	000b8613          	mv	a2,s7
800001f4:	2d0020ef          	jal	800024c4 <memmove>
800001f8:	00098613          	mv	a2,s3
800001fc:	00000593          	li	a1,0
80000200:	017c0533          	add	a0,s8,s7
80000204:	29c020ef          	jal	800024a0 <memset>
80000208:	00003517          	auipc	a0,0x3
8000020c:	acc50513          	addi	a0,a0,-1332 # 80002cd4 <_etext>
80000210:	308020ef          	jal	80002518 <printf>
80000214:	000a2783          	lw	a5,0(s4)
80000218:	00000c13          	li	s8,0
8000021c:	00000993          	li	s3,0
80000220:	f0f052e3          	blez	a5,80000124 <ant+0x114>
80000224:	00042783          	lw	a5,0(s0)
80000228:	00198993          	addi	s3,s3,1
8000022c:	00000b93          	li	s7,0
80000230:	04f05063          	blez	a5,80000270 <ant+0x260>
80000234:	00092783          	lw	a5,0(s2)
80000238:	001b8b93          	addi	s7,s7,1
8000023c:	000b8613          	mv	a2,s7
80000240:	018787b3          	add	a5,a5,s8
80000244:	0007c683          	lbu	a3,0(a5)
80000248:	00098593          	mv	a1,s3
8000024c:	00048513          	mv	a0,s1
80000250:	0016b693          	seqz	a3,a3
80000254:	40d006b3          	neg	a3,a3
80000258:	ffd6f693          	andi	a3,a3,-3
8000025c:	02368693          	addi	a3,a3,35
80000260:	2b8020ef          	jal	80002518 <printf>
80000264:	00042783          	lw	a5,0(s0)
80000268:	001c0c13          	addi	s8,s8,1
8000026c:	fcfbc4e3          	blt	s7,a5,80000234 <ant+0x224>
80000270:	000a2783          	lw	a5,0(s4)
80000274:	faf9c8e3          	blt	s3,a5,80000224 <ant+0x214>
80000278:	eadff06f          	j	80000124 <ant+0x114>
8000027c:	03798db3          	mul	s11,s3,s7
80000280:	00092c03          	lw	s8,0(s2)
80000284:	001c0593          	addi	a1,s8,1
80000288:	000c0513          	mv	a0,s8
8000028c:	fffd8613          	addi	a2,s11,-1
80000290:	234020ef          	jal	800024c4 <memmove>
80000294:	fff98793          	addi	a5,s3,-1
80000298:	01b7da63          	bge	a5,s11,800002ac <ant+0x29c>
8000029c:	00fc0733          	add	a4,s8,a5
800002a0:	00070023          	sb	zero,0(a4)
800002a4:	013787b3          	add	a5,a5,s3
800002a8:	ffb7cae3          	blt	a5,s11,8000029c <ant+0x28c>
800002ac:	fffb0b13          	addi	s6,s6,-1
800002b0:	f37ad6e3          	bge	s5,s7,800001dc <ant+0x1cc>
800002b4:	f40adae3          	bgez	s5,80000208 <ant+0x1f8>
800002b8:	fffb8613          	addi	a2,s7,-1
800002bc:	03360633          	mul	a2,a2,s3
800002c0:	000c0593          	mv	a1,s8
800002c4:	013c0533          	add	a0,s8,s3
800002c8:	001a8a93          	addi	s5,s5,1
800002cc:	1f8020ef          	jal	800024c4 <memmove>
800002d0:	00098613          	mv	a2,s3
800002d4:	00000593          	li	a1,0
800002d8:	000c0513          	mv	a0,s8
800002dc:	1c4020ef          	jal	800024a0 <memset>
800002e0:	f29ff06f          	j	80000208 <ant+0x1f8>
800002e4:	00092c03          	lw	s8,0(s2)
800002e8:	fd1ff06f          	j	800002b8 <ant+0x2a8>
800002ec:	03798db3          	mul	s11,s3,s7
800002f0:	00092c03          	lw	s8,0(s2)
800002f4:	000c0593          	mv	a1,s8
800002f8:	001c0513          	addi	a0,s8,1
800002fc:	fffd8613          	addi	a2,s11,-1
80000300:	1c4020ef          	jal	800024c4 <memmove>
80000304:	00000793          	li	a5,0
80000308:	01b05a63          	blez	s11,8000031c <ant+0x30c>
8000030c:	00fc0733          	add	a4,s8,a5
80000310:	00070023          	sb	zero,0(a4)
80000314:	013787b3          	add	a5,a5,s3
80000318:	ffb7cae3          	blt	a5,s11,8000030c <ant+0x2fc>
8000031c:	001b0b13          	addi	s6,s6,1
80000320:	eb7adee3          	bge	s5,s7,800001dc <ant+0x1cc>
80000324:	ee0ad2e3          	bgez	s5,80000208 <ant+0x1f8>
80000328:	f91ff06f          	j	800002b8 <ant+0x2a8>

8000032c <donut>:
8000032c:	000016b7          	lui	a3,0x1
80000330:	f9010113          	addi	sp,sp,-112
80000334:	80068693          	addi	a3,a3,-2048 # 800 <_entry_offset+0x800>
80000338:	06812423          	sw	s0,104(sp)
8000033c:	06912223          	sw	s1,100(sp)
80000340:	07212023          	sw	s2,96(sp)
80000344:	05512a23          	sw	s5,84(sp)
80000348:	05712623          	sw	s7,76(sp)
8000034c:	05812423          	sw	s8,72(sp)
80000350:	05912223          	sw	s9,68(sp)
80000354:	05a12023          	sw	s10,64(sp)
80000358:	06112623          	sw	ra,108(sp)
8000035c:	05312e23          	sw	s3,92(sp)
80000360:	05412c23          	sw	s4,88(sp)
80000364:	05612823          	sw	s6,80(sp)
80000368:	03b12e23          	sw	s11,60(sp)
8000036c:	00000413          	li	s0,0
80000370:	40000493          	li	s1,1024
80000374:	00000913          	li	s2,0
80000378:	40000a93          	li	s5,1024
8000037c:	00008c17          	auipc	s8,0x8
80000380:	b18c0c13          	addi	s8,s8,-1256 # 80007e94 <z>
80000384:	00008b97          	auipc	s7,0x8
80000388:	1f0b8b93          	addi	s7,s7,496 # 80008574 <b>
8000038c:	04e00c93          	li	s9,78
80000390:	ffb00d37          	lui	s10,0xffb00
80000394:	00d12e23          	sw	a3,28(sp)
80000398:	6e000613          	li	a2,1760
8000039c:	02000593          	li	a1,32
800003a0:	00008517          	auipc	a0,0x8
800003a4:	1d450513          	addi	a0,a0,468 # 80008574 <b>
800003a8:	0f8020ef          	jal	800024a0 <memset>
800003ac:	07f00593          	li	a1,127
800003b0:	6e000613          	li	a2,1760
800003b4:	00008517          	auipc	a0,0x8
800003b8:	ae050513          	addi	a0,a0,-1312 # 80007e94 <z>
800003bc:	0e4020ef          	jal	800024a0 <memset>
800003c0:	415007b3          	neg	a5,s5
800003c4:	00000593          	li	a1,0
800003c8:	40000893          	li	a7,1024
800003cc:	00f12623          	sw	a5,12(sp)
800003d0:	00058793          	mv	a5,a1
800003d4:	41200b33          	neg	s6,s2
800003d8:	00088593          	mv	a1,a7
800003dc:	05a00813          	li	a6,90
800003e0:	01400093          	li	ra,20
800003e4:	003003b7          	lui	t2,0x300
800003e8:	00078893          	mv	a7,a5
800003ec:	031a89b3          	mul	s3,s5,a7
800003f0:	01c12783          	lw	a5,28(sp)
800003f4:	00500737          	lui	a4,0x500
800003f8:	14400e93          	li	t4,324
800003fc:	00f58f33          	add	t5,a1,a5
80000400:	40000693          	li	a3,1024
80000404:	00000793          	li	a5,0
80000408:	00b12823          	sw	a1,16(sp)
8000040c:	01112a23          	sw	a7,20(sp)
80000410:	01012c23          	sw	a6,24(sp)
80000414:	03190fb3          	mul	t6,s2,a7
80000418:	c009f293          	andi	t0,s3,-1024
8000041c:	00e282b3          	add	t0,t0,a4
80000420:	40a9d993          	srai	s3,s3,0xa
80000424:	02b48a33          	mul	s4,s1,a1
80000428:	40afdf93          	srai	t6,t6,0xa
8000042c:	40aa5a13          	srai	s4,s4,0xa
80000430:	03e78e33          	mul	t3,a5,t5
80000434:	00279613          	slli	a2,a5,0x2
80000438:	00f60633          	add	a2,a2,a5
8000043c:	00269713          	slli	a4,a3,0x2
80000440:	00d70733          	add	a4,a4,a3
80000444:	40865613          	srai	a2,a2,0x8
80000448:	40c68633          	sub	a2,a3,a2
8000044c:	40875713          	srai	a4,a4,0x8
80000450:	00f70733          	add	a4,a4,a5
80000454:	fffe8e93          	addi	t4,t4,-1
80000458:	40ae5893          	srai	a7,t3,0xa
8000045c:	031a8833          	mul	a6,s5,a7
80000460:	03e68333          	mul	t1,a3,t5
80000464:	40a85813          	srai	a6,a6,0xa
80000468:	410f8833          	sub	a6,t6,a6
8000046c:	40a35313          	srai	t1,t1,0xa
80000470:	02648533          	mul	a0,s1,t1
80000474:	030405b3          	mul	a1,s0,a6
80000478:	031908b3          	mul	a7,s2,a7
8000047c:	00a585b3          	add	a1,a1,a0
80000480:	00459513          	slli	a0,a1,0x4
80000484:	40b505b3          	sub	a1,a0,a1
80000488:	005888b3          	add	a7,a7,t0
8000048c:	0315c5b3          	div	a1,a1,a7
80000490:	00b58d93          	addi	s11,a1,11
80000494:	02c60533          	mul	a0,a2,a2
80000498:	0db0e063          	bltu	ra,s11,80000558 <donut+0x22c>
8000049c:	00c58593          	addi	a1,a1,12
800004a0:	00259d93          	slli	s11,a1,0x2
800004a4:	00bd85b3          	add	a1,s11,a1
800004a8:	01a88db3          	add	s11,a7,s10
800004ac:	00459593          	slli	a1,a1,0x4
800004b0:	40fddd93          	srai	s11,s11,0xf
800004b4:	018d9d93          	slli	s11,s11,0x18
800004b8:	418ddd93          	srai	s11,s11,0x18
800004bc:	02640333          	mul	t1,s0,t1
800004c0:	03048833          	mul	a6,s1,a6
800004c4:	41030833          	sub	a6,t1,a6
800004c8:	00481313          	slli	t1,a6,0x4
800004cc:	41030333          	sub	t1,t1,a6
800004d0:	00131313          	slli	t1,t1,0x1
800004d4:	03134333          	div	t1,t1,a7
800004d8:	01930813          	addi	a6,t1,25
800004dc:	010585b3          	add	a1,a1,a6
800004e0:	01830313          	addi	t1,t1,24
800004e4:	00bc0833          	add	a6,s8,a1
800004e8:	066ce863          	bltu	s9,t1,80000558 <donut+0x22c>
800004ec:	00b79793          	slli	a5,a5,0xb
800004f0:	40fe0e33          	sub	t3,t3,a5
800004f4:	00080783          	lb	a5,0(a6)
800004f8:	40ae5e13          	srai	t3,t3,0xa
800004fc:	00bb85b3          	add	a1,s7,a1
80000500:	04fddc63          	bge	s11,a5,80000558 <donut+0x22c>
80000504:	00c12783          	lw	a5,12(sp)
80000508:	02da06b3          	mul	a3,s4,a3
8000050c:	01b80023          	sb	s11,0(a6)
80000510:	02fe07b3          	mul	a5,t3,a5
80000514:	40a7d793          	srai	a5,a5,0xa
80000518:	01f787b3          	add	a5,a5,t6
8000051c:	036e0e33          	mul	t3,t3,s6
80000520:	028787b3          	mul	a5,a5,s0
80000524:	40fe07b3          	sub	a5,t3,a5
80000528:	40d787b3          	sub	a5,a5,a3
8000052c:	40a7d793          	srai	a5,a5,0xa
80000530:	413787b3          	sub	a5,a5,s3
80000534:	4077d793          	srai	a5,a5,0x7
80000538:	fff7c693          	not	a3,a5
8000053c:	41f6d693          	srai	a3,a3,0x1f
80000540:	00d7f7b3          	and	a5,a5,a3
80000544:	00002697          	auipc	a3,0x2
80000548:	7b068693          	addi	a3,a3,1968 # 80002cf4 <_etext+0x20>
8000054c:	00f687b3          	add	a5,a3,a5
80000550:	0007c783          	lbu	a5,0(a5)
80000554:	00f58023          	sb	a5,0(a1)
80000558:	02e707b3          	mul	a5,a4,a4
8000055c:	40a38533          	sub	a0,t2,a0
80000560:	40f50533          	sub	a0,a0,a5
80000564:	40b55513          	srai	a0,a0,0xb
80000568:	02a60633          	mul	a2,a2,a0
8000056c:	02a70733          	mul	a4,a4,a0
80000570:	40a65693          	srai	a3,a2,0xa
80000574:	40a75793          	srai	a5,a4,0xa
80000578:	ea0e9ce3          	bnez	t4,80000430 <donut+0x104>
8000057c:	01412883          	lw	a7,20(sp)
80000580:	01012583          	lw	a1,16(sp)
80000584:	01812803          	lw	a6,24(sp)
80000588:	00389713          	slli	a4,a7,0x3
8000058c:	01170733          	add	a4,a4,a7
80000590:	00359793          	slli	a5,a1,0x3
80000594:	00b787b3          	add	a5,a5,a1
80000598:	40775713          	srai	a4,a4,0x7
8000059c:	40e58733          	sub	a4,a1,a4
800005a0:	4077d793          	srai	a5,a5,0x7
800005a4:	011787b3          	add	a5,a5,a7
800005a8:	02e706b3          	mul	a3,a4,a4
800005ac:	fff80813          	addi	a6,a6,-1
800005b0:	02f78633          	mul	a2,a5,a5
800005b4:	40d386b3          	sub	a3,t2,a3
800005b8:	40c686b3          	sub	a3,a3,a2
800005bc:	40b6d693          	srai	a3,a3,0xb
800005c0:	02d70733          	mul	a4,a4,a3
800005c4:	02d787b3          	mul	a5,a5,a3
800005c8:	40a75593          	srai	a1,a4,0xa
800005cc:	40a7d893          	srai	a7,a5,0xa
800005d0:	e0081ee3          	bnez	a6,800003ec <donut+0xc0>
800005d4:	002a9593          	slli	a1,s5,0x2
800005d8:	00249693          	slli	a3,s1,0x2
800005dc:	015585b3          	add	a1,a1,s5
800005e0:	00291613          	slli	a2,s2,0x2
800005e4:	009686b3          	add	a3,a3,s1
800005e8:	00241713          	slli	a4,s0,0x2
800005ec:	01260633          	add	a2,a2,s2
800005f0:	00870733          	add	a4,a4,s0
800005f4:	4075d593          	srai	a1,a1,0x7
800005f8:	4086d693          	srai	a3,a3,0x8
800005fc:	40b905b3          	sub	a1,s2,a1
80000600:	40d406b3          	sub	a3,s0,a3
80000604:	40765613          	srai	a2,a2,0x7
80000608:	40875713          	srai	a4,a4,0x8
8000060c:	01560633          	add	a2,a2,s5
80000610:	00970733          	add	a4,a4,s1
80000614:	02b58833          	mul	a6,a1,a1
80000618:	00002517          	auipc	a0,0x2
8000061c:	6bc50513          	addi	a0,a0,1724 # 80002cd4 <_etext>
80000620:	00008a17          	auipc	s4,0x8
80000624:	f54a0a13          	addi	s4,s4,-172 # 80008574 <b>
80000628:	00000993          	li	s3,0
8000062c:	6e100d93          	li	s11,1761
80000630:	02d687b3          	mul	a5,a3,a3
80000634:	41038833          	sub	a6,t2,a6
80000638:	02c60e33          	mul	t3,a2,a2
8000063c:	40f387b3          	sub	a5,t2,a5
80000640:	02e708b3          	mul	a7,a4,a4
80000644:	41c80833          	sub	a6,a6,t3
80000648:	40b85813          	srai	a6,a6,0xb
8000064c:	411787b3          	sub	a5,a5,a7
80000650:	40b7d793          	srai	a5,a5,0xb
80000654:	030585b3          	mul	a1,a1,a6
80000658:	03060633          	mul	a2,a2,a6
8000065c:	40a5d913          	srai	s2,a1,0xa
80000660:	02f70733          	mul	a4,a4,a5
80000664:	40a65a93          	srai	s5,a2,0xa
80000668:	02f686b3          	mul	a3,a3,a5
8000066c:	40a75493          	srai	s1,a4,0xa
80000670:	40a6d413          	srai	s0,a3,0xa
80000674:	6a5010ef          	jal	80002518 <printf>
80000678:	00000893          	li	a7,0
8000067c:	00812623          	sw	s0,12(sp)
80000680:	00000713          	li	a4,0
80000684:	05000813          	li	a6,80
80000688:	03100e13          	li	t3,49
8000068c:	00088413          	mv	s0,a7
80000690:	0309e7b3          	rem	a5,s3,a6
80000694:	00170b13          	addi	s6,a4,1 # 500001 <_entry_offset+0x500001>
80000698:	08078663          	beqz	a5,80000724 <donut+0x3f8>
8000069c:	06ee5263          	bge	t3,a4,80000700 <donut+0x3d4>
800006a0:	000b0713          	mv	a4,s6
800006a4:	00198993          	addi	s3,s3,1
800006a8:	001a0a13          	addi	s4,s4,1
800006ac:	ffb992e3          	bne	s3,s11,80000690 <donut+0x364>
800006b0:	02810593          	addi	a1,sp,40
800006b4:	00600513          	li	a0,6
800006b8:	00c12403          	lw	s0,12(sp)
800006bc:	48d010ef          	jal	80002348 <ioe_read>
800006c0:	02812783          	lw	a5,40(sp)
800006c4:	00018737          	lui	a4,0x18
800006c8:	6a070713          	addi	a4,a4,1696 # 186a0 <_entry_offset+0x186a0>
800006cc:	00e78a33          	add	s4,a5,a4
800006d0:	02c12703          	lw	a4,44(sp)
800006d4:	00fa37b3          	sltu	a5,s4,a5
800006d8:	00e789b3          	add	s3,a5,a4
800006dc:	02810593          	addi	a1,sp,40
800006e0:	00600513          	li	a0,6
800006e4:	465010ef          	jal	80002348 <ioe_read>
800006e8:	02c12783          	lw	a5,44(sp)
800006ec:	02812703          	lw	a4,40(sp)
800006f0:	ff37e6e3          	bltu	a5,s3,800006dc <donut+0x3b0>
800006f4:	caf992e3          	bne	s3,a5,80000398 <donut+0x6c>
800006f8:	ff4762e3          	bltu	a4,s4,800006dc <donut+0x3b0>
800006fc:	c9dff06f          	j	80000398 <donut+0x6c>
80000700:	000a4683          	lbu	a3,0(s4)
80000704:	000b0613          	mv	a2,s6
80000708:	00140593          	addi	a1,s0,1
8000070c:	00002517          	auipc	a0,0x2
80000710:	5d450513          	addi	a0,a0,1492 # 80002ce0 <_etext+0xc>
80000714:	605010ef          	jal	80002518 <printf>
80000718:	03100e13          	li	t3,49
8000071c:	05000813          	li	a6,80
80000720:	f81ff06f          	j	800006a0 <donut+0x374>
80000724:	00140413          	addi	s0,s0,1
80000728:	00100713          	li	a4,1
8000072c:	f79ff06f          	j	800006a4 <donut+0x378>

80000730 <add_disk>:
80000730:	00351713          	slli	a4,a0,0x3
80000734:	00a70733          	add	a4,a4,a0
80000738:	00271713          	slli	a4,a4,0x2
8000073c:	00008797          	auipc	a5,0x8
80000740:	51878793          	addi	a5,a5,1304 # 80008c54 <t>
80000744:	00e787b3          	add	a5,a5,a4
80000748:	0047a703          	lw	a4,4(a5)
8000074c:	0007a683          	lw	a3,0(a5)
80000750:	fd010113          	addi	sp,sp,-48
80000754:	02912223          	sw	s1,36(sp)
80000758:	02112623          	sw	ra,44(sp)
8000075c:	02812423          	sw	s0,40(sp)
80000760:	00170613          	addi	a2,a4,1
80000764:	00271713          	slli	a4,a4,0x2
80000768:	00c7a223          	sw	a2,4(a5)
8000076c:	00e686b3          	add	a3,a3,a4
80000770:	00451493          	slli	s1,a0,0x4
80000774:	00b6a023          	sw	a1,0(a3)
80000778:	00848493          	addi	s1,s1,8
8000077c:	0047a783          	lw	a5,4(a5)
80000780:	40b484b3          	sub	s1,s1,a1
80000784:	06058e63          	beqz	a1,80000800 <add_disk+0xd0>
80000788:	03212023          	sw	s2,32(sp)
8000078c:	00900913          	li	s2,9
80000790:	01312e23          	sw	s3,28(sp)
80000794:	01412c23          	sw	s4,24(sp)
80000798:	01512a23          	sw	s5,20(sp)
8000079c:	40f90933          	sub	s2,s2,a5
800007a0:	00058a93          	mv	s5,a1
800007a4:	00002a17          	auipc	s4,0x2
800007a8:	560a0a13          	addi	s4,s4,1376 # 80002d04 <_etext+0x30>
800007ac:	00002997          	auipc	s3,0x2
800007b0:	53498993          	addi	s3,s3,1332 # 80002ce0 <_etext+0xc>
800007b4:	00048413          	mv	s0,s1
800007b8:	03d00693          	li	a3,61
800007bc:	00140413          	addi	s0,s0,1
800007c0:	00040613          	mv	a2,s0
800007c4:	00090593          	mv	a1,s2
800007c8:	00098513          	mv	a0,s3
800007cc:	54d010ef          	jal	80002518 <printf>
800007d0:	409407b3          	sub	a5,s0,s1
800007d4:	00fa07b3          	add	a5,s4,a5
800007d8:	0007c683          	lbu	a3,0(a5)
800007dc:	fe0690e3          	bnez	a3,800007bc <add_disk+0x8c>
800007e0:	fffa8a93          	addi	s5,s5,-1
800007e4:	000a8663          	beqz	s5,800007f0 <add_disk+0xc0>
800007e8:	00040493          	mv	s1,s0
800007ec:	fc9ff06f          	j	800007b4 <add_disk+0x84>
800007f0:	02012903          	lw	s2,32(sp)
800007f4:	01c12983          	lw	s3,28(sp)
800007f8:	01812a03          	lw	s4,24(sp)
800007fc:	01412a83          	lw	s5,20(sp)
80000800:	00810593          	addi	a1,sp,8
80000804:	00600513          	li	a0,6
80000808:	341010ef          	jal	80002348 <ioe_read>
8000080c:	00812783          	lw	a5,8(sp)
80000810:	00018737          	lui	a4,0x18
80000814:	6a070713          	addi	a4,a4,1696 # 186a0 <_entry_offset+0x186a0>
80000818:	00e784b3          	add	s1,a5,a4
8000081c:	00c12703          	lw	a4,12(sp)
80000820:	00f4b7b3          	sltu	a5,s1,a5
80000824:	00e78433          	add	s0,a5,a4
80000828:	00810593          	addi	a1,sp,8
8000082c:	00600513          	li	a0,6
80000830:	319010ef          	jal	80002348 <ioe_read>
80000834:	00c12783          	lw	a5,12(sp)
80000838:	00812703          	lw	a4,8(sp)
8000083c:	fe87e6e3          	bltu	a5,s0,80000828 <add_disk+0xf8>
80000840:	00f41463          	bne	s0,a5,80000848 <add_disk+0x118>
80000844:	fe9762e3          	bltu	a4,s1,80000828 <add_disk+0xf8>
80000848:	02c12083          	lw	ra,44(sp)
8000084c:	02812403          	lw	s0,40(sp)
80000850:	02412483          	lw	s1,36(sp)
80000854:	03010113          	addi	sp,sp,48
80000858:	00008067          	ret

8000085c <remove_disk>:
8000085c:	00351713          	slli	a4,a0,0x3
80000860:	00a70733          	add	a4,a4,a0
80000864:	00271713          	slli	a4,a4,0x2
80000868:	00008797          	auipc	a5,0x8
8000086c:	3ec78793          	addi	a5,a5,1004 # 80008c54 <t>
80000870:	00e787b3          	add	a5,a5,a4
80000874:	0047a603          	lw	a2,4(a5)
80000878:	0007a703          	lw	a4,0(a5)
8000087c:	fe010113          	addi	sp,sp,-32
80000880:	fff60693          	addi	a3,a2,-1
80000884:	00912a23          	sw	s1,20(sp)
80000888:	01512223          	sw	s5,4(sp)
8000088c:	00112e23          	sw	ra,28(sp)
80000890:	00269593          	slli	a1,a3,0x2
80000894:	00d7a223          	sw	a3,4(a5)
80000898:	00b707b3          	add	a5,a4,a1
8000089c:	0007aa83          	lw	s5,0(a5)
800008a0:	00451493          	slli	s1,a0,0x4
800008a4:	00848493          	addi	s1,s1,8
800008a8:	415484b3          	sub	s1,s1,s5
800008ac:	080a8263          	beqz	s5,80000930 <remove_disk+0xd4>
800008b0:	01212823          	sw	s2,16(sp)
800008b4:	00900913          	li	s2,9
800008b8:	01312623          	sw	s3,12(sp)
800008bc:	01412423          	sw	s4,8(sp)
800008c0:	01612023          	sw	s6,0(sp)
800008c4:	00812c23          	sw	s0,24(sp)
800008c8:	40c90933          	sub	s2,s2,a2
800008cc:	000a8b13          	mv	s6,s5
800008d0:	00002a17          	auipc	s4,0x2
800008d4:	438a0a13          	addi	s4,s4,1080 # 80002d08 <_etext+0x34>
800008d8:	00002997          	auipc	s3,0x2
800008dc:	40898993          	addi	s3,s3,1032 # 80002ce0 <_etext+0xc>
800008e0:	00048413          	mv	s0,s1
800008e4:	02000693          	li	a3,32
800008e8:	00140413          	addi	s0,s0,1
800008ec:	00040613          	mv	a2,s0
800008f0:	00090593          	mv	a1,s2
800008f4:	00098513          	mv	a0,s3
800008f8:	421010ef          	jal	80002518 <printf>
800008fc:	409407b3          	sub	a5,s0,s1
80000900:	00fa07b3          	add	a5,s4,a5
80000904:	0007c683          	lbu	a3,0(a5)
80000908:	fe0690e3          	bnez	a3,800008e8 <remove_disk+0x8c>
8000090c:	fffb0b13          	addi	s6,s6,-1
80000910:	000b0663          	beqz	s6,8000091c <remove_disk+0xc0>
80000914:	00040493          	mv	s1,s0
80000918:	fc9ff06f          	j	800008e0 <remove_disk+0x84>
8000091c:	01812403          	lw	s0,24(sp)
80000920:	01012903          	lw	s2,16(sp)
80000924:	00c12983          	lw	s3,12(sp)
80000928:	00812a03          	lw	s4,8(sp)
8000092c:	00012b03          	lw	s6,0(sp)
80000930:	01c12083          	lw	ra,28(sp)
80000934:	01412483          	lw	s1,20(sp)
80000938:	000a8513          	mv	a0,s5
8000093c:	00412a83          	lw	s5,4(sp)
80000940:	02010113          	addi	sp,sp,32
80000944:	00008067          	ret

80000948 <move>:
80000948:	52050a63          	beqz	a0,80000e7c <move+0x534>
8000094c:	f8010113          	addi	sp,sp,-128
80000950:	07612023          	sw	s6,96(sp)
80000954:	05712e23          	sw	s7,92(sp)
80000958:	06112e23          	sw	ra,124(sp)
8000095c:	00100713          	li	a4,1
80000960:	00058b13          	mv	s6,a1
80000964:	00060b93          	mv	s7,a2
80000968:	1ce50463          	beq	a0,a4,80000b30 <move+0x1e8>
8000096c:	07212823          	sw	s2,112(sp)
80000970:	07312623          	sw	s3,108(sp)
80000974:	07512223          	sw	s5,100(sp)
80000978:	ffe50993          	addi	s3,a0,-2
8000097c:	00058913          	mv	s2,a1
80000980:	00068a93          	mv	s5,a3
80000984:	16098a63          	beqz	s3,80000af8 <move+0x1b0>
80000988:	fff98993          	addi	s3,s3,-1
8000098c:	07412423          	sw	s4,104(sp)
80000990:	00098a13          	mv	s4,s3
80000994:	05812c23          	sw	s8,88(sp)
80000998:	05912a23          	sw	s9,84(sp)
8000099c:	05a12823          	sw	s10,80(sp)
800009a0:	05b12623          	sw	s11,76(sp)
800009a4:	00098d13          	mv	s10,s3
800009a8:	06812c23          	sw	s0,120(sp)
800009ac:	000a8993          	mv	s3,s5
800009b0:	06912a23          	sw	s1,116(sp)
800009b4:	01212423          	sw	s2,8(sp)
800009b8:	000a0a93          	mv	s5,s4
800009bc:	000b8c13          	mv	s8,s7
800009c0:	00090c93          	mv	s9,s2
800009c4:	000b8d93          	mv	s11,s7
800009c8:	340a8663          	beqz	s5,80000d14 <move+0x3cc>
800009cc:	fffa8a93          	addi	s5,s5,-1
800009d0:	01912623          	sw	s9,12(sp)
800009d4:	000a8a13          	mv	s4,s5
800009d8:	00098b93          	mv	s7,s3
800009dc:	000c8493          	mv	s1,s9
800009e0:	00098913          	mv	s2,s3
800009e4:	000a8c93          	mv	s9,s5
800009e8:	000c0993          	mv	s3,s8
800009ec:	2a0a0c63          	beqz	s4,80000ca4 <move+0x35c>
800009f0:	fffa0a13          	addi	s4,s4,-1
800009f4:	01312823          	sw	s3,16(sp)
800009f8:	000a0793          	mv	a5,s4
800009fc:	00912a23          	sw	s1,20(sp)
80000a00:	00098a93          	mv	s5,s3
80000a04:	00048b13          	mv	s6,s1
80000a08:	00090993          	mv	s3,s2
80000a0c:	22078663          	beqz	a5,80000c38 <move+0x2f0>
80000a10:	fff78793          	addi	a5,a5,-1
80000a14:	00f12223          	sw	a5,4(sp)
80000a18:	00078413          	mv	s0,a5
80000a1c:	01712c23          	sw	s7,24(sp)
80000a20:	01612e23          	sw	s6,28(sp)
80000a24:	03912023          	sw	s9,32(sp)
80000a28:	03a12223          	sw	s10,36(sp)
80000a2c:	000b8493          	mv	s1,s7
80000a30:	000b0913          	mv	s2,s6
80000a34:	00098c13          	mv	s8,s3
80000a38:	18040463          	beqz	s0,80000bc0 <move+0x278>
80000a3c:	fff40413          	addi	s0,s0,-1
80000a40:	00090b13          	mv	s6,s2
80000a44:	00040b93          	mv	s7,s0
80000a48:	00090c93          	mv	s9,s2
80000a4c:	00040d13          	mv	s10,s0
80000a50:	00048913          	mv	s2,s1
80000a54:	000b0413          	mv	s0,s6
80000a58:	000a0493          	mv	s1,s4
80000a5c:	000a8a13          	mv	s4,s5
80000a60:	0e0b8a63          	beqz	s7,80000b54 <move+0x20c>
80000a64:	fffb8793          	addi	a5,s7,-1
80000a68:	02912823          	sw	s1,48(sp)
80000a6c:	00f12023          	sw	a5,0(sp)
80000a70:	03412423          	sw	s4,40(sp)
80000a74:	03212623          	sw	s2,44(sp)
80000a78:	00078493          	mv	s1,a5
80000a7c:	00090b93          	mv	s7,s2
80000a80:	00040993          	mv	s3,s0
80000a84:	38048463          	beqz	s1,80000e0c <move+0x4c4>
80000a88:	00048b13          	mv	s6,s1
80000a8c:	00098a13          	mv	s4,s3
80000a90:	02912a23          	sw	s1,52(sp)
80000a94:	000a8913          	mv	s2,s5
80000a98:	00098493          	mv	s1,s3
80000a9c:	00040993          	mv	s3,s0
80000aa0:	000b0713          	mv	a4,s6
80000aa4:	000b8613          	mv	a2,s7
80000aa8:	00048413          	mv	s0,s1
80000aac:	fff70713          	addi	a4,a4,-1
80000ab0:	00070513          	mv	a0,a4
80000ab4:	00090693          	mv	a3,s2
80000ab8:	00040593          	mv	a1,s0
80000abc:	02c12e23          	sw	a2,60(sp)
80000ac0:	02e12c23          	sw	a4,56(sp)
80000ac4:	e85ff0ef          	jal	80000948 <move>
80000ac8:	00040513          	mv	a0,s0
80000acc:	d91ff0ef          	jal	8000085c <remove_disk>
80000ad0:	00050593          	mv	a1,a0
80000ad4:	00090513          	mv	a0,s2
80000ad8:	c59ff0ef          	jal	80000730 <add_disk>
80000adc:	03c12603          	lw	a2,60(sp)
80000ae0:	03812703          	lw	a4,56(sp)
80000ae4:	00060793          	mv	a5,a2
80000ae8:	00040613          	mv	a2,s0
80000aec:	2a070a63          	beqz	a4,80000da0 <move+0x458>
80000af0:	00078413          	mv	s0,a5
80000af4:	fb9ff06f          	j	80000aac <move+0x164>
80000af8:	00090513          	mv	a0,s2
80000afc:	d61ff0ef          	jal	8000085c <remove_disk>
80000b00:	00050593          	mv	a1,a0
80000b04:	000a8513          	mv	a0,s5
80000b08:	c29ff0ef          	jal	80000730 <add_disk>
80000b0c:	00090513          	mv	a0,s2
80000b10:	d4dff0ef          	jal	8000085c <remove_disk>
80000b14:	00050593          	mv	a1,a0
80000b18:	000b8513          	mv	a0,s7
80000b1c:	c15ff0ef          	jal	80000730 <add_disk>
80000b20:	000a8b13          	mv	s6,s5
80000b24:	07012903          	lw	s2,112(sp)
80000b28:	06c12983          	lw	s3,108(sp)
80000b2c:	06412a83          	lw	s5,100(sp)
80000b30:	000b0513          	mv	a0,s6
80000b34:	d29ff0ef          	jal	8000085c <remove_disk>
80000b38:	07c12083          	lw	ra,124(sp)
80000b3c:	06012b03          	lw	s6,96(sp)
80000b40:	00050593          	mv	a1,a0
80000b44:	000b8513          	mv	a0,s7
80000b48:	05c12b83          	lw	s7,92(sp)
80000b4c:	08010113          	addi	sp,sp,128
80000b50:	be1ff06f          	j	80000730 <add_disk>
80000b54:	00040b13          	mv	s6,s0
80000b58:	000b0513          	mv	a0,s6
80000b5c:	000a8993          	mv	s3,s5
80000b60:	cfdff0ef          	jal	8000085c <remove_disk>
80000b64:	00050593          	mv	a1,a0
80000b68:	00098513          	mv	a0,s3
80000b6c:	bc5ff0ef          	jal	80000730 <add_disk>
80000b70:	000b0513          	mv	a0,s6
80000b74:	ce9ff0ef          	jal	8000085c <remove_disk>
80000b78:	00050593          	mv	a1,a0
80000b7c:	00090513          	mv	a0,s2
80000b80:	bb1ff0ef          	jal	80000730 <add_disk>
80000b84:	00098513          	mv	a0,s3
80000b88:	cd5ff0ef          	jal	8000085c <remove_disk>
80000b8c:	00050593          	mv	a1,a0
80000b90:	00090513          	mv	a0,s2
80000b94:	b9dff0ef          	jal	80000730 <add_disk>
80000b98:	000c8513          	mv	a0,s9
80000b9c:	cc1ff0ef          	jal	8000085c <remove_disk>
80000ba0:	000a0a93          	mv	s5,s4
80000ba4:	00050593          	mv	a1,a0
80000ba8:	000d0413          	mv	s0,s10
80000bac:	000a8513          	mv	a0,s5
80000bb0:	00048a13          	mv	s4,s1
80000bb4:	b7dff0ef          	jal	80000730 <add_disk>
80000bb8:	000c8493          	mv	s1,s9
80000bbc:	e80410e3          	bnez	s0,80000a3c <move+0xf4>
80000bc0:	00090513          	mv	a0,s2
80000bc4:	01c12b03          	lw	s6,28(sp)
80000bc8:	01812b83          	lw	s7,24(sp)
80000bcc:	02012c83          	lw	s9,32(sp)
80000bd0:	02412d03          	lw	s10,36(sp)
80000bd4:	c89ff0ef          	jal	8000085c <remove_disk>
80000bd8:	00050593          	mv	a1,a0
80000bdc:	00048513          	mv	a0,s1
80000be0:	b51ff0ef          	jal	80000730 <add_disk>
80000be4:	00090513          	mv	a0,s2
80000be8:	c75ff0ef          	jal	8000085c <remove_disk>
80000bec:	00050593          	mv	a1,a0
80000bf0:	000a8513          	mv	a0,s5
80000bf4:	b3dff0ef          	jal	80000730 <add_disk>
80000bf8:	00048513          	mv	a0,s1
80000bfc:	c61ff0ef          	jal	8000085c <remove_disk>
80000c00:	00050593          	mv	a1,a0
80000c04:	000a8513          	mv	a0,s5
80000c08:	b29ff0ef          	jal	80000730 <add_disk>
80000c0c:	000b0513          	mv	a0,s6
80000c10:	c4dff0ef          	jal	8000085c <remove_disk>
80000c14:	00050593          	mv	a1,a0
80000c18:	000b8513          	mv	a0,s7
80000c1c:	b15ff0ef          	jal	80000730 <add_disk>
80000c20:	00412783          	lw	a5,4(sp)
80000c24:	000b0713          	mv	a4,s6
80000c28:	000c0993          	mv	s3,s8
80000c2c:	000a8b13          	mv	s6,s5
80000c30:	00070a93          	mv	s5,a4
80000c34:	dc079ee3          	bnez	a5,80000a10 <move+0xc8>
80000c38:	000b0513          	mv	a0,s6
80000c3c:	01412483          	lw	s1,20(sp)
80000c40:	00098913          	mv	s2,s3
80000c44:	01012983          	lw	s3,16(sp)
80000c48:	c15ff0ef          	jal	8000085c <remove_disk>
80000c4c:	00050593          	mv	a1,a0
80000c50:	000a8513          	mv	a0,s5
80000c54:	addff0ef          	jal	80000730 <add_disk>
80000c58:	000b0513          	mv	a0,s6
80000c5c:	c01ff0ef          	jal	8000085c <remove_disk>
80000c60:	00050593          	mv	a1,a0
80000c64:	000b8513          	mv	a0,s7
80000c68:	ac9ff0ef          	jal	80000730 <add_disk>
80000c6c:	000a8513          	mv	a0,s5
80000c70:	bedff0ef          	jal	8000085c <remove_disk>
80000c74:	00050593          	mv	a1,a0
80000c78:	000b8513          	mv	a0,s7
80000c7c:	ab5ff0ef          	jal	80000730 <add_disk>
80000c80:	00048513          	mv	a0,s1
80000c84:	bd9ff0ef          	jal	8000085c <remove_disk>
80000c88:	00050593          	mv	a1,a0
80000c8c:	00098513          	mv	a0,s3
80000c90:	aa1ff0ef          	jal	80000730 <add_disk>
80000c94:	00048793          	mv	a5,s1
80000c98:	000b8493          	mv	s1,s7
80000c9c:	00078b93          	mv	s7,a5
80000ca0:	d40a18e3          	bnez	s4,800009f0 <move+0xa8>
80000ca4:	00048513          	mv	a0,s1
80000ca8:	000c8a93          	mv	s5,s9
80000cac:	00c12c83          	lw	s9,12(sp)
80000cb0:	badff0ef          	jal	8000085c <remove_disk>
80000cb4:	00050593          	mv	a1,a0
80000cb8:	000b8513          	mv	a0,s7
80000cbc:	a75ff0ef          	jal	80000730 <add_disk>
80000cc0:	00048513          	mv	a0,s1
80000cc4:	00098c13          	mv	s8,s3
80000cc8:	b95ff0ef          	jal	8000085c <remove_disk>
80000ccc:	00050593          	mv	a1,a0
80000cd0:	000c0513          	mv	a0,s8
80000cd4:	a5dff0ef          	jal	80000730 <add_disk>
80000cd8:	000b8513          	mv	a0,s7
80000cdc:	b81ff0ef          	jal	8000085c <remove_disk>
80000ce0:	00050593          	mv	a1,a0
80000ce4:	000c0513          	mv	a0,s8
80000ce8:	a49ff0ef          	jal	80000730 <add_disk>
80000cec:	000c8513          	mv	a0,s9
80000cf0:	b6dff0ef          	jal	8000085c <remove_disk>
80000cf4:	00050593          	mv	a1,a0
80000cf8:	00090513          	mv	a0,s2
80000cfc:	a35ff0ef          	jal	80000730 <add_disk>
80000d00:	000c8793          	mv	a5,s9
80000d04:	00090993          	mv	s3,s2
80000d08:	000c0c93          	mv	s9,s8
80000d0c:	00078c13          	mv	s8,a5
80000d10:	ca0a9ee3          	bnez	s5,800009cc <move+0x84>
80000d14:	000c8513          	mv	a0,s9
80000d18:	00812903          	lw	s2,8(sp)
80000d1c:	b41ff0ef          	jal	8000085c <remove_disk>
80000d20:	00050593          	mv	a1,a0
80000d24:	000c0513          	mv	a0,s8
80000d28:	a09ff0ef          	jal	80000730 <add_disk>
80000d2c:	000c8513          	mv	a0,s9
80000d30:	00098a93          	mv	s5,s3
80000d34:	b29ff0ef          	jal	8000085c <remove_disk>
80000d38:	00050593          	mv	a1,a0
80000d3c:	000a8513          	mv	a0,s5
80000d40:	9f1ff0ef          	jal	80000730 <add_disk>
80000d44:	000c0513          	mv	a0,s8
80000d48:	b15ff0ef          	jal	8000085c <remove_disk>
80000d4c:	00050593          	mv	a1,a0
80000d50:	000a8513          	mv	a0,s5
80000d54:	9ddff0ef          	jal	80000730 <add_disk>
80000d58:	00090513          	mv	a0,s2
80000d5c:	b01ff0ef          	jal	8000085c <remove_disk>
80000d60:	00050593          	mv	a1,a0
80000d64:	000d8513          	mv	a0,s11
80000d68:	9c9ff0ef          	jal	80000730 <add_disk>
80000d6c:	00090793          	mv	a5,s2
80000d70:	000d8b93          	mv	s7,s11
80000d74:	000d0993          	mv	s3,s10
80000d78:	000a8913          	mv	s2,s5
80000d7c:	07812403          	lw	s0,120(sp)
80000d80:	07412483          	lw	s1,116(sp)
80000d84:	06812a03          	lw	s4,104(sp)
80000d88:	05812c03          	lw	s8,88(sp)
80000d8c:	05412c83          	lw	s9,84(sp)
80000d90:	05012d03          	lw	s10,80(sp)
80000d94:	04c12d83          	lw	s11,76(sp)
80000d98:	00078a93          	mv	s5,a5
80000d9c:	be9ff06f          	j	80000984 <move+0x3c>
80000da0:	00048513          	mv	a0,s1
80000da4:	ab9ff0ef          	jal	8000085c <remove_disk>
80000da8:	00050593          	mv	a1,a0
80000dac:	fffb0b13          	addi	s6,s6,-1
80000db0:	000b8513          	mv	a0,s7
80000db4:	97dff0ef          	jal	80000730 <add_disk>
80000db8:	000b0a63          	beqz	s6,80000dcc <move+0x484>
80000dbc:	00048713          	mv	a4,s1
80000dc0:	00090493          	mv	s1,s2
80000dc4:	00070913          	mv	s2,a4
80000dc8:	cd9ff06f          	j	80000aa0 <move+0x158>
80000dcc:	00090513          	mv	a0,s2
80000dd0:	03412483          	lw	s1,52(sp)
80000dd4:	a89ff0ef          	jal	8000085c <remove_disk>
80000dd8:	00050593          	mv	a1,a0
80000ddc:	000b8513          	mv	a0,s7
80000de0:	951ff0ef          	jal	80000730 <add_disk>
80000de4:	000a0513          	mv	a0,s4
80000de8:	a75ff0ef          	jal	8000085c <remove_disk>
80000dec:	00050593          	mv	a1,a0
80000df0:	fff48493          	addi	s1,s1,-1
80000df4:	000a8513          	mv	a0,s5
80000df8:	00098413          	mv	s0,s3
80000dfc:	935ff0ef          	jal	80000730 <add_disk>
80000e00:	000b8993          	mv	s3,s7
80000e04:	000a0b93          	mv	s7,s4
80000e08:	c80490e3          	bnez	s1,80000a88 <move+0x140>
80000e0c:	00098513          	mv	a0,s3
80000e10:	02c12903          	lw	s2,44(sp)
80000e14:	02812a03          	lw	s4,40(sp)
80000e18:	03012483          	lw	s1,48(sp)
80000e1c:	a41ff0ef          	jal	8000085c <remove_disk>
80000e20:	00050593          	mv	a1,a0
80000e24:	000b8513          	mv	a0,s7
80000e28:	909ff0ef          	jal	80000730 <add_disk>
80000e2c:	00098513          	mv	a0,s3
80000e30:	a2dff0ef          	jal	8000085c <remove_disk>
80000e34:	00050593          	mv	a1,a0
80000e38:	000a8513          	mv	a0,s5
80000e3c:	8f5ff0ef          	jal	80000730 <add_disk>
80000e40:	000b8513          	mv	a0,s7
80000e44:	a19ff0ef          	jal	8000085c <remove_disk>
80000e48:	00050593          	mv	a1,a0
80000e4c:	000a8513          	mv	a0,s5
80000e50:	8e1ff0ef          	jal	80000730 <add_disk>
80000e54:	00040513          	mv	a0,s0
80000e58:	a05ff0ef          	jal	8000085c <remove_disk>
80000e5c:	00050593          	mv	a1,a0
80000e60:	00090513          	mv	a0,s2
80000e64:	8cdff0ef          	jal	80000730 <add_disk>
80000e68:	00040793          	mv	a5,s0
80000e6c:	00012b83          	lw	s7,0(sp)
80000e70:	000a8413          	mv	s0,s5
80000e74:	00078a93          	mv	s5,a5
80000e78:	be9ff06f          	j	80000a60 <move+0x118>
80000e7c:	00008067          	ret

80000e80 <hanoi>:
80000e80:	ff010113          	addi	sp,sp,-16
80000e84:	00002517          	auipc	a0,0x2
80000e88:	e5050513          	addi	a0,a0,-432 # 80002cd4 <_etext>
80000e8c:	00812423          	sw	s0,8(sp)
80000e90:	00912223          	sw	s1,4(sp)
80000e94:	00112623          	sw	ra,12(sp)
80000e98:	01212023          	sw	s2,0(sp)
80000e9c:	00008417          	auipc	s0,0x8
80000ea0:	db840413          	addi	s0,s0,-584 # 80008c54 <t>
80000ea4:	674010ef          	jal	80002518 <printf>
80000ea8:	00008497          	auipc	s1,0x8
80000eac:	e1848493          	addi	s1,s1,-488 # 80008cc0 <t>
80000eb0:	00040513          	mv	a0,s0
80000eb4:	02400613          	li	a2,36
80000eb8:	00000593          	li	a1,0
80000ebc:	5e4010ef          	jal	800024a0 <memset>
80000ec0:	00840793          	addi	a5,s0,8
80000ec4:	00f42023          	sw	a5,0(s0)
80000ec8:	02440413          	addi	s0,s0,36
80000ecc:	fe8492e3          	bne	s1,s0,80000eb0 <hanoi+0x30>
80000ed0:	00700413          	li	s0,7
80000ed4:	00040593          	mv	a1,s0
80000ed8:	00000513          	li	a0,0
80000edc:	fff40413          	addi	s0,s0,-1
80000ee0:	851ff0ef          	jal	80000730 <add_disk>
80000ee4:	fe0418e3          	bnez	s0,80000ed4 <hanoi+0x54>
80000ee8:	00100913          	li	s2,1
80000eec:	00700493          	li	s1,7
80000ef0:	fff48493          	addi	s1,s1,-1
80000ef4:	00090613          	mv	a2,s2
80000ef8:	00200693          	li	a3,2
80000efc:	00040593          	mv	a1,s0
80000f00:	00048513          	mv	a0,s1
80000f04:	a45ff0ef          	jal	80000948 <move>
80000f08:	00040513          	mv	a0,s0
80000f0c:	951ff0ef          	jal	8000085c <remove_disk>
80000f10:	00050593          	mv	a1,a0
80000f14:	00200513          	li	a0,2
80000f18:	819ff0ef          	jal	80000730 <add_disk>
80000f1c:	00090793          	mv	a5,s2
80000f20:	00040913          	mv	s2,s0
80000f24:	00048663          	beqz	s1,80000f30 <hanoi+0xb0>
80000f28:	00078413          	mv	s0,a5
80000f2c:	fc5ff06f          	j	80000ef0 <hanoi+0x70>
80000f30:	00c12083          	lw	ra,12(sp)
80000f34:	00812403          	lw	s0,8(sp)
80000f38:	00412483          	lw	s1,4(sp)
80000f3c:	00012903          	lw	s2,0(sp)
80000f40:	01010113          	addi	sp,sp,16
80000f44:	00008067          	ret

80000f48 <show>:
80000f48:	fd010113          	addi	sp,sp,-48
80000f4c:	01412c23          	sw	s4,24(sp)
80000f50:	01712623          	sw	s7,12(sp)
80000f54:	00050a13          	mv	s4,a0
80000f58:	00007b97          	auipc	s7,0x7
80000f5c:	d2cb8b93          	addi	s7,s7,-724 # 80007c84 <w>
80000f60:	00002517          	auipc	a0,0x2
80000f64:	d7450513          	addi	a0,a0,-652 # 80002cd4 <_etext>
80000f68:	01512a23          	sw	s5,20(sp)
80000f6c:	01612823          	sw	s6,16(sp)
80000f70:	000baa83          	lw	s5,0(s7)
80000f74:	02112623          	sw	ra,44(sp)
80000f78:	00007b17          	auipc	s6,0x7
80000f7c:	d04b0b13          	addi	s6,s6,-764 # 80007c7c <h>
80000f80:	598010ef          	jal	80002518 <printf>
80000f84:	000b2783          	lw	a5,0(s6)
80000f88:	08f05463          	blez	a5,80001010 <show+0xc8>
80000f8c:	03212023          	sw	s2,32(sp)
80000f90:	01312e23          	sw	s3,28(sp)
80000f94:	02812423          	sw	s0,40(sp)
80000f98:	02912223          	sw	s1,36(sp)
80000f9c:	002a9a93          	slli	s5,s5,0x2
80000fa0:	00000913          	li	s2,0
80000fa4:	00002997          	auipc	s3,0x2
80000fa8:	d3c98993          	addi	s3,s3,-708 # 80002ce0 <_etext+0xc>
80000fac:	000ba783          	lw	a5,0(s7)
80000fb0:	00190913          	addi	s2,s2,1
80000fb4:	000a0493          	mv	s1,s4
80000fb8:	00000413          	li	s0,0
80000fbc:	02f05c63          	blez	a5,80000ff4 <show+0xac>
80000fc0:	0004a683          	lw	a3,0(s1)
80000fc4:	00140413          	addi	s0,s0,1
80000fc8:	00040613          	mv	a2,s0
80000fcc:	0016b693          	seqz	a3,a3
80000fd0:	40d006b3          	neg	a3,a3
80000fd4:	fb16f693          	andi	a3,a3,-79
80000fd8:	06f68693          	addi	a3,a3,111
80000fdc:	00090593          	mv	a1,s2
80000fe0:	00098513          	mv	a0,s3
80000fe4:	534010ef          	jal	80002518 <printf>
80000fe8:	000ba783          	lw	a5,0(s7)
80000fec:	00448493          	addi	s1,s1,4
80000ff0:	fcf448e3          	blt	s0,a5,80000fc0 <show+0x78>
80000ff4:	000b2783          	lw	a5,0(s6)
80000ff8:	015a0a33          	add	s4,s4,s5
80000ffc:	faf948e3          	blt	s2,a5,80000fac <show+0x64>
80001000:	02812403          	lw	s0,40(sp)
80001004:	02412483          	lw	s1,36(sp)
80001008:	02012903          	lw	s2,32(sp)
8000100c:	01c12983          	lw	s3,28(sp)
80001010:	02c12083          	lw	ra,44(sp)
80001014:	01812a03          	lw	s4,24(sp)
80001018:	01412a83          	lw	s5,20(sp)
8000101c:	01012b03          	lw	s6,16(sp)
80001020:	00c12b83          	lw	s7,12(sp)
80001024:	03010113          	addi	sp,sp,48
80001028:	00008067          	ret

8000102c <evolve>:
8000102c:	fe010113          	addi	sp,sp,-32
80001030:	00912c23          	sw	s1,24(sp)
80001034:	00007e97          	auipc	t4,0x7
80001038:	c48eae83          	lw	t4,-952(t4) # 80007c7c <h>
8000103c:	00007817          	auipc	a6,0x7
80001040:	c4882803          	lw	a6,-952(a6) # 80007c84 <w>
80001044:	00008497          	auipc	s1,0x8
80001048:	dc44a483          	lw	s1,-572(s1) # 80008e08 <new_array>
8000104c:	13d05263          	blez	t4,80001170 <evolve+0x144>
80001050:	00812e23          	sw	s0,28(sp)
80001054:	01512423          	sw	s5,8(sp)
80001058:	00180413          	addi	s0,a6,1
8000105c:	001e8a93          	addi	s5,t4,1
80001060:	01212a23          	sw	s2,20(sp)
80001064:	01312823          	sw	s3,16(sp)
80001068:	01412623          	sw	s4,12(sp)
8000106c:	00050f93          	mv	t6,a0
80001070:	002e8e13          	addi	t3,t4,2
80001074:	fffe8393          	addi	t2,t4,-1
80001078:	00281313          	slli	t1,a6,0x2
8000107c:	00050913          	mv	s2,a0
80001080:	001a9a93          	slli	s5,s5,0x1
80001084:	00141413          	slli	s0,s0,0x1
80001088:	00050a13          	mv	s4,a0
8000108c:	00048993          	mv	s3,s1
80001090:	07005e63          	blez	a6,8000110c <evolve+0xe0>
80001094:	00280513          	addi	a0,a6,2
80001098:	fff80893          	addi	a7,a6,-1
8000109c:	000a0293          	mv	t0,s4
800010a0:	00098f13          	mv	t5,s3
800010a4:	00038593          	mv	a1,t2
800010a8:	00000613          	li	a2,0
800010ac:	03d5e6b3          	rem	a3,a1,t4
800010b0:	00088713          	mv	a4,a7
800010b4:	026686b3          	mul	a3,a3,t1
800010b8:	00df86b3          	add	a3,t6,a3
800010bc:	030767b3          	rem	a5,a4,a6
800010c0:	00170713          	addi	a4,a4,1
800010c4:	00279793          	slli	a5,a5,0x2
800010c8:	00f687b3          	add	a5,a3,a5
800010cc:	0007a783          	lw	a5,0(a5)
800010d0:	00f037b3          	snez	a5,a5
800010d4:	00f60633          	add	a2,a2,a5
800010d8:	fee512e3          	bne	a0,a4,800010bc <evolve+0x90>
800010dc:	00158593          	addi	a1,a1,1
800010e0:	fdc596e3          	bne	a1,t3,800010ac <evolve+0x80>
800010e4:	0002a783          	lw	a5,0(t0)
800010e8:	ffd60613          	addi	a2,a2,-3
800010ec:	08078863          	beqz	a5,8000117c <evolve+0x150>
800010f0:	00263613          	sltiu	a2,a2,2
800010f4:	00cf2023          	sw	a2,0(t5)
800010f8:	00150513          	addi	a0,a0,1
800010fc:	004f0f13          	addi	t5,t5,4
80001100:	00428293          	addi	t0,t0,4
80001104:	00188893          	addi	a7,a7,1
80001108:	f8851ee3          	bne	a0,s0,800010a4 <evolve+0x78>
8000110c:	001e0e13          	addi	t3,t3,1
80001110:	00138393          	addi	t2,t2,1 # 300001 <_entry_offset+0x300001>
80001114:	006989b3          	add	s3,s3,t1
80001118:	006a0a33          	add	s4,s4,t1
8000111c:	f75e1ae3          	bne	t3,s5,80001090 <evolve+0x64>
80001120:	00000593          	li	a1,0
80001124:	00090693          	mv	a3,s2
80001128:	00048713          	mv	a4,s1
8000112c:	00000793          	li	a5,0
80001130:	01005e63          	blez	a6,8000114c <evolve+0x120>
80001134:	00072603          	lw	a2,0(a4)
80001138:	00178793          	addi	a5,a5,1
8000113c:	00470713          	addi	a4,a4,4
80001140:	00c6a023          	sw	a2,0(a3)
80001144:	00468693          	addi	a3,a3,4
80001148:	fef816e3          	bne	a6,a5,80001134 <evolve+0x108>
8000114c:	00158593          	addi	a1,a1,1
80001150:	006484b3          	add	s1,s1,t1
80001154:	00690933          	add	s2,s2,t1
80001158:	fdd596e3          	bne	a1,t4,80001124 <evolve+0xf8>
8000115c:	01c12403          	lw	s0,28(sp)
80001160:	01412903          	lw	s2,20(sp)
80001164:	01012983          	lw	s3,16(sp)
80001168:	00c12a03          	lw	s4,12(sp)
8000116c:	00812a83          	lw	s5,8(sp)
80001170:	01812483          	lw	s1,24(sp)
80001174:	02010113          	addi	sp,sp,32
80001178:	00008067          	ret
8000117c:	00163613          	seqz	a2,a2
80001180:	f75ff06f          	j	800010f4 <evolve+0xc8>

80001184 <game_of_life>:
80001184:	05000793          	li	a5,80
80001188:	00002537          	lui	a0,0x2
8000118c:	fd010113          	addi	sp,sp,-48
80001190:	e0050513          	addi	a0,a0,-512 # 1e00 <_entry_offset+0x1e00>
80001194:	00007717          	auipc	a4,0x7
80001198:	aef72823          	sw	a5,-1296(a4) # 80007c84 <w>
8000119c:	01800793          	li	a5,24
800011a0:	00007717          	auipc	a4,0x7
800011a4:	acf72e23          	sw	a5,-1316(a4) # 80007c7c <h>
800011a8:	02112623          	sw	ra,44(sp)
800011ac:	02912223          	sw	s1,36(sp)
800011b0:	03212023          	sw	s2,32(sp)
800011b4:	01312e23          	sw	s3,28(sp)
800011b8:	01412c23          	sw	s4,24(sp)
800011bc:	02812423          	sw	s0,40(sp)
800011c0:	245010ef          	jal	80002c04 <malloc>
800011c4:	00050913          	mv	s2,a0
800011c8:	00002537          	lui	a0,0x2
800011cc:	e0050513          	addi	a0,a0,-512 # 1e00 <_entry_offset+0x1e00>
800011d0:	000024b7          	lui	s1,0x2
800011d4:	000029b7          	lui	s3,0x2
800011d8:	00008797          	auipc	a5,0x8
800011dc:	c327a623          	sw	s2,-980(a5) # 80008e04 <univ_array>
800011e0:	e0048493          	addi	s1,s1,-512 # 1e00 <_entry_offset+0x1e00>
800011e4:	221010ef          	jal	80002c04 <malloc>
800011e8:	f4098993          	addi	s3,s3,-192 # 1f40 <_entry_offset+0x1f40>
800011ec:	ffffea37          	lui	s4,0xffffe
800011f0:	00008797          	auipc	a5,0x8
800011f4:	c0a7ac23          	sw	a0,-1000(a5) # 80008e08 <new_array>
800011f8:	009904b3          	add	s1,s2,s1
800011fc:	013909b3          	add	s3,s2,s3
80001200:	200a0a13          	addi	s4,s4,512 # ffffe200 <_end+0x7ffed200>
80001204:	01448433          	add	s0,s1,s4
80001208:	1c9010ef          	jal	80002bd0 <rand>
8000120c:	01f55793          	srli	a5,a0,0x1f
80001210:	00f50533          	add	a0,a0,a5
80001214:	00157513          	andi	a0,a0,1
80001218:	40f50533          	sub	a0,a0,a5
8000121c:	00a42023          	sw	a0,0(s0)
80001220:	14040413          	addi	s0,s0,320
80001224:	fe9412e3          	bne	s0,s1,80001208 <game_of_life+0x84>
80001228:	00440493          	addi	s1,s0,4
8000122c:	fd349ce3          	bne	s1,s3,80001204 <game_of_life+0x80>
80001230:	000319b7          	lui	s3,0x31
80001234:	d4098993          	addi	s3,s3,-704 # 30d40 <_entry_offset+0x30d40>
80001238:	00090513          	mv	a0,s2
8000123c:	d0dff0ef          	jal	80000f48 <show>
80001240:	00090513          	mv	a0,s2
80001244:	de9ff0ef          	jal	8000102c <evolve>
80001248:	00810593          	addi	a1,sp,8
8000124c:	00600513          	li	a0,6
80001250:	0f8010ef          	jal	80002348 <ioe_read>
80001254:	00812403          	lw	s0,8(sp)
80001258:	00c12783          	lw	a5,12(sp)
8000125c:	013404b3          	add	s1,s0,s3
80001260:	0084b433          	sltu	s0,s1,s0
80001264:	00f40433          	add	s0,s0,a5
80001268:	00810593          	addi	a1,sp,8
8000126c:	00600513          	li	a0,6
80001270:	0d8010ef          	jal	80002348 <ioe_read>
80001274:	00c12783          	lw	a5,12(sp)
80001278:	00812703          	lw	a4,8(sp)
8000127c:	fe87e6e3          	bltu	a5,s0,80001268 <game_of_life+0xe4>
80001280:	faf41ce3          	bne	s0,a5,80001238 <game_of_life+0xb4>
80001284:	fe9762e3          	bltu	a4,s1,80001268 <game_of_life+0xe4>
80001288:	fb1ff06f          	j	80001238 <game_of_life+0xb4>

8000128c <main>:
8000128c:	fe010113          	addi	sp,sp,-32
80001290:	00812c23          	sw	s0,24(sp)
80001294:	00112e23          	sw	ra,28(sp)
80001298:	00050413          	mv	s0,a0
8000129c:	050010ef          	jal	800022ec <ioe_init>
800012a0:	00044783          	lbu	a5,0(s0)
800012a4:	00700713          	li	a4,7
800012a8:	fcf78793          	addi	a5,a5,-49
800012ac:	0ff7f793          	zext.b	a5,a5
800012b0:	08f76e63          	bltu	a4,a5,8000134c <main+0xc0>
800012b4:	00005717          	auipc	a4,0x5
800012b8:	b3070713          	addi	a4,a4,-1232 # 80005de4 <_etext+0x3110>
800012bc:	00279793          	slli	a5,a5,0x2
800012c0:	00e787b3          	add	a5,a5,a4
800012c4:	0007a783          	lw	a5,0(a5)
800012c8:	00e787b3          	add	a5,a5,a4
800012cc:	00078067          	jr	a5
800012d0:	85cff0ef          	jal	8000032c <donut>
800012d4:	00002517          	auipc	a0,0x2
800012d8:	ac850513          	addi	a0,a0,-1336 # 80002d9c <_etext+0xc8>
800012dc:	23c010ef          	jal	80002518 <printf>
800012e0:	01d00413          	li	s0,29
800012e4:	00810593          	addi	a1,sp,8
800012e8:	00800513          	li	a0,8
800012ec:	05c010ef          	jal	80002348 <ioe_read>
800012f0:	00814783          	lbu	a5,8(sp)
800012f4:	00c12703          	lw	a4,12(sp)
800012f8:	fe0786e3          	beqz	a5,800012e4 <main+0x58>
800012fc:	fe8714e3          	bne	a4,s0,800012e4 <main+0x58>
80001300:	01c12083          	lw	ra,28(sp)
80001304:	01812403          	lw	s0,24(sp)
80001308:	00000513          	li	a0,0
8000130c:	02010113          	addi	sp,sp,32
80001310:	00008067          	ret
80001314:	3c5000ef          	jal	80001ed8 <bf>
80001318:	fbdff06f          	j	800012d4 <main+0x48>
8000131c:	cf5fe0ef          	jal	80000010 <ant>
80001320:	fb5ff06f          	j	800012d4 <main+0x48>
80001324:	584000ef          	jal	800018a8 <galton>
80001328:	fadff06f          	j	800012d4 <main+0x48>
8000132c:	b55ff0ef          	jal	80000e80 <hanoi>
80001330:	fa5ff06f          	j	800012d4 <main+0x48>
80001334:	e51ff0ef          	jal	80001184 <game_of_life>
80001338:	f9dff06f          	j	800012d4 <main+0x48>
8000133c:	080000ef          	jal	800013bc <aclock>
80001340:	f95ff06f          	j	800012d4 <main+0x48>
80001344:	32c000ef          	jal	80001670 <cmatrix>
80001348:	f8dff06f          	j	800012d4 <main+0x48>
8000134c:	00002517          	auipc	a0,0x2
80001350:	9c050513          	addi	a0,a0,-1600 # 80002d0c <_etext+0x38>
80001354:	1c4010ef          	jal	80002518 <printf>
80001358:	00002517          	auipc	a0,0x2
8000135c:	9d050513          	addi	a0,a0,-1584 # 80002d28 <_etext+0x54>
80001360:	1b8010ef          	jal	80002518 <printf>
80001364:	00002517          	auipc	a0,0x2
80001368:	9d050513          	addi	a0,a0,-1584 # 80002d34 <_etext+0x60>
8000136c:	1ac010ef          	jal	80002518 <printf>
80001370:	00002517          	auipc	a0,0x2
80001374:	9d450513          	addi	a0,a0,-1580 # 80002d44 <_etext+0x70>
80001378:	1a0010ef          	jal	80002518 <printf>
8000137c:	00002517          	auipc	a0,0x2
80001380:	9d450513          	addi	a0,a0,-1580 # 80002d50 <_etext+0x7c>
80001384:	194010ef          	jal	80002518 <printf>
80001388:	00002517          	auipc	a0,0x2
8000138c:	9dc50513          	addi	a0,a0,-1572 # 80002d64 <_etext+0x90>
80001390:	188010ef          	jal	80002518 <printf>
80001394:	00002517          	auipc	a0,0x2
80001398:	9e050513          	addi	a0,a0,-1568 # 80002d74 <_etext+0xa0>
8000139c:	17c010ef          	jal	80002518 <printf>
800013a0:	00002517          	auipc	a0,0x2
800013a4:	9e450513          	addi	a0,a0,-1564 # 80002d84 <_etext+0xb0>
800013a8:	170010ef          	jal	80002518 <printf>
800013ac:	00002517          	auipc	a0,0x2
800013b0:	9e450513          	addi	a0,a0,-1564 # 80002d90 <_etext+0xbc>
800013b4:	164010ef          	jal	80002518 <printf>
800013b8:	f1dff06f          	j	800012d4 <main+0x48>

800013bc <aclock>:
800013bc:	fa010113          	addi	sp,sp,-96
800013c0:	03712e23          	sw	s7,60(sp)
800013c4:	000f4bb7          	lui	s7,0xf4
800013c8:	04812c23          	sw	s0,88(sp)
800013cc:	04912a23          	sw	s1,84(sp)
800013d0:	05512223          	sw	s5,68(sp)
800013d4:	05612023          	sw	s6,64(sp)
800013d8:	03912a23          	sw	s9,52(sp)
800013dc:	03a12823          	sw	s10,48(sp)
800013e0:	03b12623          	sw	s11,44(sp)
800013e4:	04112e23          	sw	ra,92(sp)
800013e8:	05212823          	sw	s2,80(sp)
800013ec:	05312623          	sw	s3,76(sp)
800013f0:	05412423          	sw	s4,72(sp)
800013f4:	03812c23          	sw	s8,56(sp)
800013f8:	00005497          	auipc	s1,0x5
800013fc:	cdc48493          	addi	s1,s1,-804 # 800060d4 <hour>
80001400:	00005d97          	auipc	s11,0x5
80001404:	cd4d8d93          	addi	s11,s11,-812 # 800060d4 <hour>
80001408:	00005d17          	auipc	s10,0x5
8000140c:	cfcd0d13          	addi	s10,s10,-772 # 80006104 <hour+0x30>
80001410:	00006b17          	auipc	s6,0x6
80001414:	804b0b13          	addi	s6,s6,-2044 # 80006c14 <minute>
80001418:	00006a97          	auipc	s5,0x6
8000141c:	83ca8a93          	addi	s5,s5,-1988 # 80006c54 <minute+0x40>
80001420:	00002417          	auipc	s0,0x2
80001424:	8c040413          	addi	s0,s0,-1856 # 80002ce0 <_etext+0xc>
80001428:	00c00c93          	li	s9,12
8000142c:	240b8b93          	addi	s7,s7,576 # f4240 <_entry_offset+0xf4240>
80001430:	00810593          	addi	a1,sp,8
80001434:	00500513          	li	a0,5
80001438:	711000ef          	jal	80002348 <ioe_read>
8000143c:	00002517          	auipc	a0,0x2
80001440:	89850513          	addi	a0,a0,-1896 # 80002cd4 <_etext>
80001444:	01412983          	lw	s3,20(sp)
80001448:	01812903          	lw	s2,24(sp)
8000144c:	01c12a03          	lw	s4,28(sp)
80001450:	00005c17          	auipc	s8,0x5
80001454:	9b4c0c13          	addi	s8,s8,-1612 # 80005e04 <circle>
80001458:	0c0010ef          	jal	80002518 <printf>
8000145c:	000c2603          	lw	a2,0(s8)
80001460:	004c2583          	lw	a1,4(s8)
80001464:	008c4683          	lbu	a3,8(s8)
80001468:	ff160613          	addi	a2,a2,-15
8000146c:	00158593          	addi	a1,a1,1
80001470:	00040513          	mv	a0,s0
80001474:	00cc0c13          	addi	s8,s8,12
80001478:	0a0010ef          	jal	80002518 <printf>
8000147c:	fe9c10e3          	bne	s8,s1,8000145c <aclock+0xa0>
80001480:	0f3cdc63          	bge	s9,s3,80001578 <aclock+0x1bc>
80001484:	ff498993          	addi	s3,s3,-12
80001488:	00299713          	slli	a4,s3,0x2
8000148c:	01370733          	add	a4,a4,s3
80001490:	00a00793          	li	a5,10
80001494:	02f947b3          	div	a5,s2,a5
80001498:	00e787b3          	add	a5,a5,a4
8000149c:	00179993          	slli	s3,a5,0x1
800014a0:	00f989b3          	add	s3,s3,a5
800014a4:	00499993          	slli	s3,s3,0x4
800014a8:	013d8c33          	add	s8,s11,s3
800014ac:	013d09b3          	add	s3,s10,s3
800014b0:	000c2603          	lw	a2,0(s8)
800014b4:	004c2583          	lw	a1,4(s8)
800014b8:	06800693          	li	a3,104
800014bc:	ff160613          	addi	a2,a2,-15
800014c0:	00158593          	addi	a1,a1,1
800014c4:	00040513          	mv	a0,s0
800014c8:	008c0c13          	addi	s8,s8,8
800014cc:	04c010ef          	jal	80002518 <printf>
800014d0:	ff3c10e3          	bne	s8,s3,800014b0 <aclock+0xf4>
800014d4:	00691913          	slli	s2,s2,0x6
800014d8:	012b09b3          	add	s3,s6,s2
800014dc:	012a8933          	add	s2,s5,s2
800014e0:	0009a603          	lw	a2,0(s3)
800014e4:	0049a583          	lw	a1,4(s3)
800014e8:	04d00693          	li	a3,77
800014ec:	ff160613          	addi	a2,a2,-15
800014f0:	00158593          	addi	a1,a1,1
800014f4:	00040513          	mv	a0,s0
800014f8:	00898993          	addi	s3,s3,8
800014fc:	01c010ef          	jal	80002518 <printf>
80001500:	ff2990e3          	bne	s3,s2,800014e0 <aclock+0x124>
80001504:	006a1993          	slli	s3,s4,0x6
80001508:	013b0933          	add	s2,s6,s3
8000150c:	013a89b3          	add	s3,s5,s3
80001510:	00092603          	lw	a2,0(s2)
80001514:	00492583          	lw	a1,4(s2)
80001518:	02e00693          	li	a3,46
8000151c:	ff160613          	addi	a2,a2,-15
80001520:	00158593          	addi	a1,a1,1
80001524:	00040513          	mv	a0,s0
80001528:	00890913          	addi	s2,s2,8
8000152c:	7ed000ef          	jal	80002518 <printf>
80001530:	ff3910e3          	bne	s2,s3,80001510 <aclock+0x154>
80001534:	00810593          	addi	a1,sp,8
80001538:	00600513          	li	a0,6
8000153c:	60d000ef          	jal	80002348 <ioe_read>
80001540:	00812903          	lw	s2,8(sp)
80001544:	00c12783          	lw	a5,12(sp)
80001548:	017909b3          	add	s3,s2,s7
8000154c:	0129b933          	sltu	s2,s3,s2
80001550:	00f90933          	add	s2,s2,a5
80001554:	00810593          	addi	a1,sp,8
80001558:	00600513          	li	a0,6
8000155c:	5ed000ef          	jal	80002348 <ioe_read>
80001560:	00c12783          	lw	a5,12(sp)
80001564:	00812703          	lw	a4,8(sp)
80001568:	ff27e6e3          	bltu	a5,s2,80001554 <aclock+0x198>
8000156c:	ecf912e3          	bne	s2,a5,80001430 <aclock+0x74>
80001570:	ff3762e3          	bltu	a4,s3,80001554 <aclock+0x198>
80001574:	ebdff06f          	j	80001430 <aclock+0x74>
80001578:	00299713          	slli	a4,s3,0x2
8000157c:	01370733          	add	a4,a4,s3
80001580:	f11ff06f          	j	80001490 <aclock+0xd4>

80001584 <sub_d.isra.0>:
80001584:	41f55713          	srai	a4,a0,0x1f
80001588:	01c75713          	srli	a4,a4,0x1c
8000158c:	00e507b3          	add	a5,a0,a4
80001590:	00f7f793          	andi	a5,a5,15
80001594:	40e787b3          	sub	a5,a5,a4
80001598:	ff010113          	addi	sp,sp,-16
8000159c:	00479793          	slli	a5,a5,0x4
800015a0:	00812423          	sw	s0,8(sp)
800015a4:	00912223          	sw	s1,4(sp)
800015a8:	00112623          	sw	ra,12(sp)
800015ac:	0ff7f793          	zext.b	a5,a5
800015b0:	00900713          	li	a4,9
800015b4:	00058493          	mv	s1,a1
800015b8:	00060413          	mv	s0,a2
800015bc:	02f76a63          	bltu	a4,a5,800015f0 <sub_d.isra.0+0x6c>
800015c0:	01700793          	li	a5,23
800015c4:	04c7e663          	bltu	a5,a2,80001610 <sub_d.isra.0+0x8c>
800015c8:	02000693          	li	a3,32
800015cc:	00140593          	addi	a1,s0,1
800015d0:	00812403          	lw	s0,8(sp)
800015d4:	00c12083          	lw	ra,12(sp)
800015d8:	00148613          	addi	a2,s1,1
800015dc:	00412483          	lw	s1,4(sp)
800015e0:	00001517          	auipc	a0,0x1
800015e4:	70050513          	addi	a0,a0,1792 # 80002ce0 <_etext+0xc>
800015e8:	01010113          	addi	sp,sp,16
800015ec:	72d0006f          	j	80002518 <printf>
800015f0:	fb400793          	li	a5,-76
800015f4:	40a787b3          	sub	a5,a5,a0
800015f8:	0ff7f793          	zext.b	a5,a5
800015fc:	0aa00713          	li	a4,170
80001600:	04f76a63          	bltu	a4,a5,80001654 <sub_d.isra.0+0xd0>
80001604:	02e79063          	bne	a5,a4,80001624 <sub_d.isra.0+0xa0>
80001608:	01700793          	li	a5,23
8000160c:	0287f863          	bgeu	a5,s0,8000163c <sub_d.isra.0+0xb8>
80001610:	00c12083          	lw	ra,12(sp)
80001614:	00812403          	lw	s0,8(sp)
80001618:	00412483          	lw	s1,4(sp)
8000161c:	01010113          	addi	sp,sp,16
80001620:	00008067          	ret
80001624:	02000593          	li	a1,32
80001628:	00001517          	auipc	a0,0x1
8000162c:	6c450513          	addi	a0,a0,1732 # 80002cec <_etext+0x18>
80001630:	6e9000ef          	jal	80002518 <printf>
80001634:	01700793          	li	a5,23
80001638:	fc87ece3          	bltu	a5,s0,80001610 <sub_d.isra.0+0x8c>
8000163c:	029406b3          	mul	a3,s0,s1
80001640:	05e00793          	li	a5,94
80001644:	02f6e6b3          	rem	a3,a3,a5
80001648:	02168693          	addi	a3,a3,33
8000164c:	0ff6f693          	zext.b	a3,a3
80001650:	f7dff06f          	j	800015cc <sub_d.isra.0+0x48>
80001654:	02500593          	li	a1,37
80001658:	00001517          	auipc	a0,0x1
8000165c:	69450513          	addi	a0,a0,1684 # 80002cec <_etext+0x18>
80001660:	6b9000ef          	jal	80002518 <printf>
80001664:	01700793          	li	a5,23
80001668:	fa87e4e3          	bltu	a5,s0,80001610 <sub_d.isra.0+0x8c>
8000166c:	fd1ff06f          	j	8000163c <sub_d.isra.0+0xb8>

80001670 <cmatrix>:
80001670:	fa010113          	addi	sp,sp,-96
80001674:	00001517          	auipc	a0,0x1
80001678:	66050513          	addi	a0,a0,1632 # 80002cd4 <_etext>
8000167c:	04112e23          	sw	ra,92(sp)
80001680:	04812c23          	sw	s0,88(sp)
80001684:	04912a23          	sw	s1,84(sp)
80001688:	05212823          	sw	s2,80(sp)
8000168c:	05412423          	sw	s4,72(sp)
80001690:	05512223          	sw	s5,68(sp)
80001694:	05312623          	sw	s3,76(sp)
80001698:	05612023          	sw	s6,64(sp)
8000169c:	03712e23          	sw	s7,60(sp)
800016a0:	03812c23          	sw	s8,56(sp)
800016a4:	03912a23          	sw	s9,52(sp)
800016a8:	03a12823          	sw	s10,48(sp)
800016ac:	03b12623          	sw	s11,44(sp)
800016b0:	669000ef          	jal	80002518 <printf>
800016b4:	51c010ef          	jal	80002bd0 <rand>
800016b8:	00007a97          	auipc	s5,0x7
800016bc:	608a8a93          	addi	s5,s5,1544 # 80008cc0 <t>
800016c0:	00050a13          	mv	s4,a0
800016c4:	000a8413          	mv	s0,s5
800016c8:	00007917          	auipc	s2,0x7
800016cc:	73890913          	addi	s2,s2,1848 # 80008e00 <pix>
800016d0:	03200493          	li	s1,50
800016d4:	4fc010ef          	jal	80002bd0 <rand>
800016d8:	40a007b3          	neg	a5,a0
800016dc:	0297e7b3          	rem	a5,a5,s1
800016e0:	00440413          	addi	s0,s0,4
800016e4:	fef42e23          	sw	a5,-4(s0)
800016e8:	ff2416e3          	bne	s0,s2,800016d4 <cmatrix+0x64>
800016ec:	00a00613          	li	a2,10
800016f0:	00a00593          	li	a1,10
800016f4:	00100513          	li	a0,1
800016f8:	e8dff0ef          	jal	80001584 <sub_d.isra.0>
800016fc:	000187b7          	lui	a5,0x18
80001700:	00ba0713          	addi	a4,s4,11
80001704:	6a078793          	addi	a5,a5,1696 # 186a0 <_entry_offset+0x186a0>
80001708:	002a0913          	addi	s2,s4,2
8000170c:	00aa0993          	addi	s3,s4,10
80001710:	00e12223          	sw	a4,4(sp)
80001714:	04f00b93          	li	s7,79
80001718:	01c00b13          	li	s6,28
8000171c:	01700c13          	li	s8,23
80001720:	00f12623          	sw	a5,12(sp)
80001724:	04f00493          	li	s1,79
80001728:	0740006f          	j	8000179c <cmatrix+0x12c>
8000172c:	00100793          	li	a5,1
80001730:	00f72023          	sw	a5,0(a4)
80001734:	e51ff0ef          	jal	80001584 <sub_d.isra.0>
80001738:	ffd00613          	li	a2,-3
8000173c:	00040593          	mv	a1,s0
80001740:	00090513          	mv	a0,s2
80001744:	e41ff0ef          	jal	80001584 <sub_d.isra.0>
80001748:	ffe00613          	li	a2,-2
8000174c:	00040593          	mv	a1,s0
80001750:	00098513          	mv	a0,s3
80001754:	e31ff0ef          	jal	80001584 <sub_d.isra.0>
80001758:	fff00613          	li	a2,-1
8000175c:	00040593          	mv	a1,s0
80001760:	00098513          	mv	a0,s3
80001764:	e21ff0ef          	jal	80001584 <sub_d.isra.0>
80001768:	00412503          	lw	a0,4(sp)
8000176c:	00000613          	li	a2,0
80001770:	00040593          	mv	a1,s0
80001774:	e11ff0ef          	jal	80001584 <sub_d.isra.0>
80001778:	00000a13          	li	s4,0
8000177c:	02000693          	li	a3,32
80001780:	00140613          	addi	a2,s0,1
80001784:	002a0593          	addi	a1,s4,2
80001788:	00001517          	auipc	a0,0x1
8000178c:	55850513          	addi	a0,a0,1368 # 80002ce0 <_etext+0xc>
80001790:	fff48493          	addi	s1,s1,-1
80001794:	585000ef          	jal	80002518 <printf>
80001798:	0c048463          	beqz	s1,80001860 <cmatrix+0x1f0>
8000179c:	434010ef          	jal	80002bd0 <rand>
800017a0:	03756433          	rem	s0,a0,s7
800017a4:	ffc00613          	li	a2,-4
800017a8:	00090513          	mv	a0,s2
800017ac:	02000693          	li	a3,32
800017b0:	00241713          	slli	a4,s0,0x2
800017b4:	00ea8733          	add	a4,s5,a4
800017b8:	00072a03          	lw	s4,0(a4)
800017bc:	00040593          	mv	a1,s0
800017c0:	001a0c93          	addi	s9,s4,1
800017c4:	ffba0893          	addi	a7,s4,-5
800017c8:	f74b42e3          	blt	s6,s4,8000172c <cmatrix+0xbc>
800017cc:	ffda0793          	addi	a5,s4,-3
800017d0:	01972023          	sw	s9,0(a4)
800017d4:	00f12423          	sw	a5,8(sp)
800017d8:	ffca0713          	addi	a4,s4,-4
800017dc:	00140613          	addi	a2,s0,1
800017e0:	00001517          	auipc	a0,0x1
800017e4:	50050513          	addi	a0,a0,1280 # 80002ce0 <_etext+0xc>
800017e8:	00070593          	mv	a1,a4
800017ec:	ffea0d13          	addi	s10,s4,-2
800017f0:	fffa0d93          	addi	s11,s4,-1
800017f4:	011c6863          	bltu	s8,a7,80001804 <cmatrix+0x194>
800017f8:	00e12423          	sw	a4,8(sp)
800017fc:	51d000ef          	jal	80002518 <printf>
80001800:	00812703          	lw	a4,8(sp)
80001804:	00070613          	mv	a2,a4
80001808:	00040593          	mv	a1,s0
8000180c:	00090513          	mv	a0,s2
80001810:	d75ff0ef          	jal	80001584 <sub_d.isra.0>
80001814:	ffda0613          	addi	a2,s4,-3
80001818:	00040593          	mv	a1,s0
8000181c:	00090513          	mv	a0,s2
80001820:	d65ff0ef          	jal	80001584 <sub_d.isra.0>
80001824:	000d0613          	mv	a2,s10
80001828:	00040593          	mv	a1,s0
8000182c:	00098513          	mv	a0,s3
80001830:	d55ff0ef          	jal	80001584 <sub_d.isra.0>
80001834:	000d8613          	mv	a2,s11
80001838:	00040593          	mv	a1,s0
8000183c:	00098513          	mv	a0,s3
80001840:	d45ff0ef          	jal	80001584 <sub_d.isra.0>
80001844:	00412503          	lw	a0,4(sp)
80001848:	000a0613          	mv	a2,s4
8000184c:	00040593          	mv	a1,s0
80001850:	d35ff0ef          	jal	80001584 <sub_d.isra.0>
80001854:	f39c74e3          	bgeu	s8,s9,8000177c <cmatrix+0x10c>
80001858:	fff48493          	addi	s1,s1,-1
8000185c:	f40490e3          	bnez	s1,8000179c <cmatrix+0x12c>
80001860:	01810593          	addi	a1,sp,24
80001864:	00600513          	li	a0,6
80001868:	2e1000ef          	jal	80002348 <ioe_read>
8000186c:	01812783          	lw	a5,24(sp)
80001870:	00c12703          	lw	a4,12(sp)
80001874:	00e784b3          	add	s1,a5,a4
80001878:	01c12703          	lw	a4,28(sp)
8000187c:	00f4b7b3          	sltu	a5,s1,a5
80001880:	00e78433          	add	s0,a5,a4
80001884:	01810593          	addi	a1,sp,24
80001888:	00600513          	li	a0,6
8000188c:	2bd000ef          	jal	80002348 <ioe_read>
80001890:	01c12783          	lw	a5,28(sp)
80001894:	01812703          	lw	a4,24(sp)
80001898:	fe87e6e3          	bltu	a5,s0,80001884 <cmatrix+0x214>
8000189c:	e8f414e3          	bne	s0,a5,80001724 <cmatrix+0xb4>
800018a0:	fe9762e3          	bltu	a4,s1,80001884 <cmatrix+0x214>
800018a4:	e81ff06f          	j	80001724 <cmatrix+0xb4>

800018a8 <galton>:
800018a8:	f8010113          	addi	sp,sp,-128
800018ac:	01e00793          	li	a5,30
800018b0:	06112e23          	sw	ra,124(sp)
800018b4:	06812c23          	sw	s0,120(sp)
800018b8:	06912a23          	sw	s1,116(sp)
800018bc:	07212823          	sw	s2,112(sp)
800018c0:	07412423          	sw	s4,104(sp)
800018c4:	05912a23          	sw	s9,84(sp)
800018c8:	07312623          	sw	s3,108(sp)
800018cc:	07512223          	sw	s5,100(sp)
800018d0:	07612023          	sw	s6,96(sp)
800018d4:	05712e23          	sw	s7,92(sp)
800018d8:	05812c23          	sw	s8,88(sp)
800018dc:	05a12823          	sw	s10,80(sp)
800018e0:	05b12623          	sw	s11,76(sp)
800018e4:	00007c97          	auipc	s9,0x7
800018e8:	53cc8c93          	addi	s9,s9,1340 # 80008e20 <h>
800018ec:	00001517          	auipc	a0,0x1
800018f0:	3e850513          	addi	a0,a0,1000 # 80002cd4 <_etext>
800018f4:	00fca023          	sw	a5,0(s9)
800018f8:	421000ef          	jal	80002518 <printf>
800018fc:	000ca903          	lw	s2,0(s9)
80001900:	00007a17          	auipc	s4,0x7
80001904:	510a0a13          	addi	s4,s4,1296 # 80008e10 <b>
80001908:	00491493          	slli	s1,s2,0x4
8000190c:	012484b3          	add	s1,s1,s2
80001910:	00048513          	mv	a0,s1
80001914:	2f0010ef          	jal	80002c04 <malloc>
80001918:	00048613          	mv	a2,s1
8000191c:	02000593          	li	a1,32
80001920:	00050413          	mv	s0,a0
80001924:	00aa2023          	sw	a0,0(s4)
80001928:	379000ef          	jal	800024a0 <memset>
8000192c:	00002537          	lui	a0,0x2
80001930:	2d4010ef          	jal	80002c04 <malloc>
80001934:	00001737          	lui	a4,0x1
80001938:	00e50733          	add	a4,a0,a4
8000193c:	00007697          	auipc	a3,0x7
80001940:	4e068693          	addi	a3,a3,1248 # 80008e1c <x>
80001944:	00007797          	auipc	a5,0x7
80001948:	4d478793          	addi	a5,a5,1236 # 80008e18 <y>
8000194c:	00a6a023          	sw	a0,0(a3)
80001950:	00e7a023          	sw	a4,0(a5)
80001954:	00040613          	mv	a2,s0
80001958:	00000513          	li	a0,0
8000195c:	00000593          	li	a1,0
80001960:	02a00693          	li	a3,42
80001964:	ff800813          	li	a6,-8
80001968:	00260713          	addi	a4,a2,2
8000196c:	00a70733          	add	a4,a4,a0
80001970:	00060793          	mv	a5,a2
80001974:	02d78523          	sb	a3,42(a5)
80001978:	00278793          	addi	a5,a5,2
8000197c:	fef71ce3          	bne	a4,a5,80001974 <galton+0xcc>
80001980:	fff58593          	addi	a1,a1,-1
80001984:	00250513          	addi	a0,a0,2 # 2002 <_entry_offset+0x2002>
80001988:	02160613          	addi	a2,a2,33
8000198c:	fd059ee3          	bne	a1,a6,80001968 <galton+0xc0>
80001990:	00001637          	lui	a2,0x1
80001994:	77060613          	addi	a2,a2,1904 # 1770 <_entry_offset+0x1770>
80001998:	02a00d93          	li	s11,42
8000199c:	00001417          	auipc	s0,0x1
800019a0:	34440413          	addi	s0,s0,836 # 80002ce0 <_etext+0xc>
800019a4:	02000d13          	li	s10,32
800019a8:	00001a97          	auipc	s5,0x1
800019ac:	344a8a93          	addi	s5,s5,836 # 80002cec <_etext+0x18>
800019b0:	00060993          	mv	s3,a2
800019b4:	fef00c13          	li	s8,-17
800019b8:	00000493          	li	s1,0
800019bc:	0b205e63          	blez	s2,80001a78 <galton+0x1d0>
800019c0:	01312223          	sw	s3,4(sp)
800019c4:	000c0b93          	mv	s7,s8
800019c8:	00148493          	addi	s1,s1,1
800019cc:	011c0c13          	addi	s8,s8,17
800019d0:	00200b13          	li	s6,2
800019d4:	0640006f          	j	80001a38 <galton+0x190>
800019d8:	0007c583          	lbu	a1,0(a5)
800019dc:	fe058593          	addi	a1,a1,-32
800019e0:	0015b593          	seqz	a1,a1
800019e4:	01f58593          	addi	a1,a1,31
800019e8:	331000ef          	jal	80002518 <printf>
800019ec:	000a2783          	lw	a5,0(s4)
800019f0:	00048593          	mv	a1,s1
800019f4:	00098613          	mv	a2,s3
800019f8:	012787b3          	add	a5,a5,s2
800019fc:	0007c683          	lbu	a3,0(a5)
80001a00:	00040513          	mv	a0,s0
80001a04:	315000ef          	jal	80002518 <printf>
80001a08:	00000593          	li	a1,0
80001a0c:	000a8513          	mv	a0,s5
80001a10:	309000ef          	jal	80002518 <printf>
80001a14:	000b0613          	mv	a2,s6
80001a18:	02000693          	li	a3,32
80001a1c:	00048593          	mv	a1,s1
80001a20:	00040513          	mv	a0,s0
80001a24:	2f5000ef          	jal	80002518 <printf>
80001a28:	002b0b13          	addi	s6,s6,2
80001a2c:	02400793          	li	a5,36
80001a30:	001b8b93          	addi	s7,s7,1
80001a34:	02fb0c63          	beq	s6,a5,80001a6c <galton+0x1c4>
80001a38:	000a2703          	lw	a4,0(s4)
80001a3c:	011b8913          	addi	s2,s7,17
80001a40:	fffb0993          	addi	s3,s6,-1
80001a44:	017707b3          	add	a5,a4,s7
80001a48:	01270733          	add	a4,a4,s2
80001a4c:	00074683          	lbu	a3,0(a4) # 1000 <_entry_offset+0x1000>
80001a50:	000a8513          	mv	a0,s5
80001a54:	00048593          	mv	a1,s1
80001a58:	00098613          	mv	a2,s3
80001a5c:	f7b68ee3          	beq	a3,s11,800019d8 <galton+0x130>
80001a60:	00040513          	mv	a0,s0
80001a64:	2b5000ef          	jal	80002518 <printf>
80001a68:	fadff06f          	j	80001a14 <galton+0x16c>
80001a6c:	000ca783          	lw	a5,0(s9)
80001a70:	f4f4cae3          	blt	s1,a5,800019c4 <galton+0x11c>
80001a74:	00412983          	lw	s3,4(sp)
80001a78:	03810593          	addi	a1,sp,56
80001a7c:	00600513          	li	a0,6
80001a80:	0c9000ef          	jal	80002348 <ioe_read>
80001a84:	03812783          	lw	a5,56(sp)
80001a88:	03c12703          	lw	a4,60(sp)
80001a8c:	01378933          	add	s2,a5,s3
80001a90:	00f937b3          	sltu	a5,s2,a5
80001a94:	00e784b3          	add	s1,a5,a4
80001a98:	03810593          	addi	a1,sp,56
80001a9c:	00600513          	li	a0,6
80001aa0:	0a9000ef          	jal	80002348 <ioe_read>
80001aa4:	03c12783          	lw	a5,60(sp)
80001aa8:	03812703          	lw	a4,56(sp)
80001aac:	fe97e6e3          	bltu	a5,s1,80001a98 <galton+0x1f0>
80001ab0:	00f49463          	bne	s1,a5,80001ab8 <galton+0x210>
80001ab4:	ff2762e3          	bltu	a4,s2,80001a98 <galton+0x1f0>
80001ab8:	00007797          	auipc	a5,0x7
80001abc:	35478793          	addi	a5,a5,852 # 80008e0c <step.0>
80001ac0:	0007ab83          	lw	s7,0(a5)
80001ac4:	00007797          	auipc	a5,0x7
80001ac8:	35078793          	addi	a5,a5,848 # 80008e14 <cnt>
80001acc:	0007a603          	lw	a2,0(a5)
80001ad0:	001b8b93          	addi	s7,s7,1
80001ad4:	2ec05463          	blez	a2,80001dbc <galton+0x514>
80001ad8:	00007797          	auipc	a5,0x7
80001adc:	34478793          	addi	a5,a5,836 # 80008e1c <x>
80001ae0:	0007a683          	lw	a3,0(a5)
80001ae4:	00007797          	auipc	a5,0x7
80001ae8:	33478793          	addi	a5,a5,820 # 80008e18 <y>
80001aec:	0007a703          	lw	a4,0(a5)
80001af0:	00000c13          	li	s8,0
80001af4:	00068913          	mv	s2,a3
80001af8:	00070493          	mv	s1,a4
80001afc:	00f00813          	li	a6,15
80001b00:	fff00593          	li	a1,-1
80001b04:	000c0893          	mv	a7,s8
80001b08:	0004ac03          	lw	s8,0(s1)
80001b0c:	00092b03          	lw	s6,0(s2)
80001b10:	080c4063          	bltz	s8,80001b90 <galton+0x2e8>
80001b14:	000ca783          	lw	a5,0(s9)
80001b18:	fff78793          	addi	a5,a5,-1
80001b1c:	06fc0863          	beq	s8,a5,80001b8c <galton+0x2e4>
80001b20:	001c0513          	addi	a0,s8,1
80001b24:	000a2e03          	lw	t3,0(s4)
80001b28:	00451793          	slli	a5,a0,0x4
80001b2c:	00a787b3          	add	a5,a5,a0
80001b30:	00fb0fb3          	add	t6,s6,a5
80001b34:	01fe0fb3          	add	t6,t3,t6
80001b38:	000fc303          	lbu	t1,0(t6)
80001b3c:	fef78e93          	addi	t4,a5,-17
80001b40:	01db0f33          	add	t5,s6,t4
80001b44:	19a30e63          	beq	t1,s10,80001ce0 <galton+0x438>
80001b48:	00100293          	li	t0,1
80001b4c:	01b30463          	beq	t1,s11,80001b54 <galton+0x2ac>
80001b50:	00300293          	li	t0,3
80001b54:	01ee0333          	add	t1,t3,t5
80001b58:	1b684663          	blt	a6,s6,80001d04 <galton+0x45c>
80001b5c:	00134503          	lbu	a0,1(t1)
80001b60:	05a50e63          	beq	a0,s10,80001bbc <galton+0x314>
80001b64:	1a0b1063          	bnez	s6,80001d04 <galton+0x45c>
80001b68:	000f0793          	mv	a5,t5
80001b6c:	00100513          	li	a0,1
80001b70:	00fe07b3          	add	a5,t3,a5
80001b74:	0007ce03          	lbu	t3,0(a5)
80001b78:	01a78023          	sb	s10,0(a5)
80001b7c:	0184a023          	sw	s8,0(s1)
80001b80:	01692023          	sw	s6,0(s2)
80001b84:	01c30023          	sb	t3,0(t1)
80001b88:	00050463          	beqz	a0,80001b90 <galton+0x2e8>
80001b8c:	00b4a023          	sw	a1,0(s1)
80001b90:	00188893          	addi	a7,a7,1
80001b94:	00490913          	addi	s2,s2,4
80001b98:	00448493          	addi	s1,s1,4
80001b9c:	f6c896e3          	bne	a7,a2,80001b08 <galton+0x260>
80001ba0:	00007797          	auipc	a5,0x7
80001ba4:	26c78793          	addi	a5,a5,620 # 80008e0c <step.0>
80001ba8:	0177a023          	sw	s7,0(a5)
80001bac:	00200793          	li	a5,2
80001bb0:	0afb8663          	beq	s7,a5,80001c5c <galton+0x3b4>
80001bb4:	000ca903          	lw	s2,0(s9)
80001bb8:	dfdff06f          	j	800019b4 <galton+0x10c>
80001bbc:	001fc503          	lbu	a0,1(t6)
80001bc0:	fba512e3          	bne	a0,s10,80001b64 <galton+0x2bc>
80001bc4:	00128f13          	addi	t5,t0,1
80001bc8:	02e12623          	sw	a4,44(sp)
80001bcc:	02d12423          	sw	a3,40(sp)
80001bd0:	02c12223          	sw	a2,36(sp)
80001bd4:	03112023          	sw	a7,32(sp)
80001bd8:	00612e23          	sw	t1,28(sp)
80001bdc:	01f12c23          	sw	t6,24(sp)
80001be0:	01d12a23          	sw	t4,20(sp)
80001be4:	01c12623          	sw	t3,12(sp)
80001be8:	00512423          	sw	t0,8(sp)
80001bec:	01e12223          	sw	t5,4(sp)
80001bf0:	00f12823          	sw	a5,16(sp)
80001bf4:	7dd000ef          	jal	80002bd0 <rand>
80001bf8:	00812283          	lw	t0,8(sp)
80001bfc:	00412f03          	lw	t5,4(sp)
80001c00:	00c12e03          	lw	t3,12(sp)
80001c04:	02556533          	rem	a0,a0,t0
80001c08:	01412e83          	lw	t4,20(sp)
80001c0c:	01812f83          	lw	t6,24(sp)
80001c10:	01c12303          	lw	t1,28(sp)
80001c14:	02012883          	lw	a7,32(sp)
80001c18:	02412603          	lw	a2,36(sp)
80001c1c:	02812683          	lw	a3,40(sp)
80001c20:	02c12703          	lw	a4,44(sp)
80001c24:	00f00813          	li	a6,15
80001c28:	fff00593          	li	a1,-1
80001c2c:	0c051863          	bnez	a0,80001cfc <galton+0x454>
80001c30:	220b1a63          	bnez	s6,80001e64 <galton+0x5bc>
80001c34:	0004a303          	lw	t1,0(s1)
80001c38:	01012783          	lw	a5,16(sp)
80001c3c:	00092e83          	lw	t4,0(s2)
80001c40:	00100b13          	li	s6,1
80001c44:	ff078f13          	addi	t5,a5,-16
80001c48:	00431793          	slli	a5,t1,0x4
80001c4c:	006787b3          	add	a5,a5,t1
80001c50:	01d787b3          	add	a5,a5,t4
80001c54:	01ee0333          	add	t1,t3,t5
80001c58:	f19ff06f          	j	80001b70 <galton+0x2c8>
80001c5c:	3ff00793          	li	a5,1023
80001c60:	f4c7cae3          	blt	a5,a2,80001bb4 <galton+0x30c>
80001c64:	00261793          	slli	a5,a2,0x2
80001c68:	00f68b33          	add	s6,a3,a5
80001c6c:	00800593          	li	a1,8
80001c70:	00bb2023          	sw	a1,0(s6)
80001c74:	00f70933          	add	s2,a4,a5
80001c78:	00092023          	sw	zero,0(s2)
80001c7c:	000a2483          	lw	s1,0(s4)
80001c80:	000b2783          	lw	a5,0(s6)
80001c84:	00007717          	auipc	a4,0x7
80001c88:	18072423          	sw	zero,392(a4) # 80008e0c <step.0>
80001c8c:	00f487b3          	add	a5,s1,a5
80001c90:	0007c783          	lbu	a5,0(a5)
80001c94:	15a78c63          	beq	a5,s10,80001dec <galton+0x544>
80001c98:	00068513          	mv	a0,a3
80001c9c:	034010ef          	jal	80002cd0 <free>
80001ca0:	07812403          	lw	s0,120(sp)
80001ca4:	07c12083          	lw	ra,124(sp)
80001ca8:	07012903          	lw	s2,112(sp)
80001cac:	06c12983          	lw	s3,108(sp)
80001cb0:	06812a03          	lw	s4,104(sp)
80001cb4:	06412a83          	lw	s5,100(sp)
80001cb8:	06012b03          	lw	s6,96(sp)
80001cbc:	05c12b83          	lw	s7,92(sp)
80001cc0:	05812c03          	lw	s8,88(sp)
80001cc4:	05412c83          	lw	s9,84(sp)
80001cc8:	05012d03          	lw	s10,80(sp)
80001ccc:	04c12d83          	lw	s11,76(sp)
80001cd0:	00048513          	mv	a0,s1
80001cd4:	07412483          	lw	s1,116(sp)
80001cd8:	08010113          	addi	sp,sp,128
80001cdc:	7f50006f          	j	80002cd0 <free>
80001ce0:	01ee0f33          	add	t5,t3,t5
80001ce4:	000f4783          	lbu	a5,0(t5)
80001ce8:	01af0023          	sb	s10,0(t5)
80001cec:	00a4a023          	sw	a0,0(s1)
80001cf0:	01692023          	sw	s6,0(s2)
80001cf4:	00ff8023          	sb	a5,0(t6)
80001cf8:	e99ff06f          	j	80001b90 <galton+0x2e8>
80001cfc:	0a0b0263          	beqz	s6,80001da0 <galton+0x4f8>
80001d00:	000f0293          	mv	t0,t5
80001d04:	fff34783          	lbu	a5,-1(t1)
80001d08:	09a79c63          	bne	a5,s10,80001da0 <galton+0x4f8>
80001d0c:	ffffc783          	lbu	a5,-1(t6)
80001d10:	00000f13          	li	t5,0
80001d14:	17a79e63          	bne	a5,s10,80001e90 <galton+0x5e8>
80001d18:	02e12223          	sw	a4,36(sp)
80001d1c:	02d12023          	sw	a3,32(sp)
80001d20:	00c12e23          	sw	a2,28(sp)
80001d24:	01112c23          	sw	a7,24(sp)
80001d28:	00612a23          	sw	t1,20(sp)
80001d2c:	01d12823          	sw	t4,16(sp)
80001d30:	01e12623          	sw	t5,12(sp)
80001d34:	00512423          	sw	t0,8(sp)
80001d38:	01c12223          	sw	t3,4(sp)
80001d3c:	695000ef          	jal	80002bd0 <rand>
80001d40:	00812283          	lw	t0,8(sp)
80001d44:	00412e03          	lw	t3,4(sp)
80001d48:	00c12f03          	lw	t5,12(sp)
80001d4c:	02556533          	rem	a0,a0,t0
80001d50:	01012e83          	lw	t4,16(sp)
80001d54:	01412303          	lw	t1,20(sp)
80001d58:	01812883          	lw	a7,24(sp)
80001d5c:	01c12603          	lw	a2,28(sp)
80001d60:	02012683          	lw	a3,32(sp)
80001d64:	02412703          	lw	a4,36(sp)
80001d68:	00f00813          	li	a6,15
80001d6c:	fff00593          	li	a1,-1
80001d70:	0c050463          	beqz	a0,80001e38 <galton+0x590>
80001d74:	0004a503          	lw	a0,0(s1)
80001d78:	00092f83          	lw	t6,0(s2)
80001d7c:	00451793          	slli	a5,a0,0x4
80001d80:	00a787b3          	add	a5,a5,a0
80001d84:	01f787b3          	add	a5,a5,t6
80001d88:	0c0f0a63          	beqz	t5,80001e5c <galton+0x5b4>
80001d8c:	001b0b13          	addi	s6,s6,1
80001d90:	01db0f33          	add	t5,s6,t4
80001d94:	00000513          	li	a0,0
80001d98:	01ee0333          	add	t1,t3,t5
80001d9c:	dd5ff06f          	j	80001b70 <galton+0x2c8>
80001da0:	0004ae83          	lw	t4,0(s1)
80001da4:	00092f03          	lw	t5,0(s2)
80001da8:	00100513          	li	a0,1
80001dac:	004e9793          	slli	a5,t4,0x4
80001db0:	01d787b3          	add	a5,a5,t4
80001db4:	01e787b3          	add	a5,a5,t5
80001db8:	db9ff06f          	j	80001b70 <galton+0x2c8>
80001dbc:	00007797          	auipc	a5,0x7
80001dc0:	05078793          	addi	a5,a5,80 # 80008e0c <step.0>
80001dc4:	0177a023          	sw	s7,0(a5)
80001dc8:	00200793          	li	a5,2
80001dcc:	defb94e3          	bne	s7,a5,80001bb4 <galton+0x30c>
80001dd0:	00007797          	auipc	a5,0x7
80001dd4:	04c78793          	addi	a5,a5,76 # 80008e1c <x>
80001dd8:	0007a683          	lw	a3,0(a5)
80001ddc:	00007797          	auipc	a5,0x7
80001de0:	03c78793          	addi	a5,a5,60 # 80008e18 <y>
80001de4:	0007a703          	lw	a4,0(a5)
80001de8:	e7dff06f          	j	80001c64 <galton+0x3bc>
80001dec:	00c12223          	sw	a2,4(sp)
80001df0:	5e1000ef          	jal	80002bd0 <rand>
80001df4:	05000793          	li	a5,80
80001df8:	02f56733          	rem	a4,a0,a5
80001dfc:	00092683          	lw	a3,0(s2)
80001e00:	000b2583          	lw	a1,0(s6)
80001e04:	00412603          	lw	a2,4(sp)
80001e08:	00469793          	slli	a5,a3,0x4
80001e0c:	00d787b3          	add	a5,a5,a3
80001e10:	00f487b3          	add	a5,s1,a5
80001e14:	00160613          	addi	a2,a2,1
80001e18:	00b787b3          	add	a5,a5,a1
80001e1c:	00007697          	auipc	a3,0x7
80001e20:	ff868693          	addi	a3,a3,-8 # 80008e14 <cnt>
80001e24:	000ca903          	lw	s2,0(s9)
80001e28:	00c6a023          	sw	a2,0(a3)
80001e2c:	02b70713          	addi	a4,a4,43
80001e30:	00e78023          	sb	a4,0(a5)
80001e34:	b81ff06f          	j	800019b4 <galton+0x10c>
80001e38:	0004a303          	lw	t1,0(s1)
80001e3c:	00092f83          	lw	t6,0(s2)
80001e40:	fffb0b13          	addi	s6,s6,-1
80001e44:	00431793          	slli	a5,t1,0x4
80001e48:	006787b3          	add	a5,a5,t1
80001e4c:	01db0f33          	add	t5,s6,t4
80001e50:	01f787b3          	add	a5,a5,t6
80001e54:	01ee0333          	add	t1,t3,t5
80001e58:	d19ff06f          	j	80001b70 <galton+0x2c8>
80001e5c:	00100513          	li	a0,1
80001e60:	d11ff06f          	j	80001b70 <galton+0x2c8>
80001e64:	fff34783          	lbu	a5,-1(t1)
80001e68:	05a78263          	beq	a5,s10,80001eac <galton+0x604>
80001e6c:	0004a303          	lw	t1,0(s1)
80001e70:	01100793          	li	a5,17
80001e74:	00092f83          	lw	t6,0(s2)
80001e78:	026787b3          	mul	a5,a5,t1
80001e7c:	001b0b13          	addi	s6,s6,1
80001e80:	01db0f33          	add	t5,s6,t4
80001e84:	01ee0333          	add	t1,t3,t5
80001e88:	01f787b3          	add	a5,a5,t6
80001e8c:	ce5ff06f          	j	80001b70 <galton+0x2c8>
80001e90:	0004a503          	lw	a0,0(s1)
80001e94:	01100793          	li	a5,17
80001e98:	00092e83          	lw	t4,0(s2)
80001e9c:	02a787b3          	mul	a5,a5,a0
80001ea0:	00100513          	li	a0,1
80001ea4:	01d787b3          	add	a5,a5,t4
80001ea8:	cc9ff06f          	j	80001b70 <galton+0x2c8>
80001eac:	ffffc783          	lbu	a5,-1(t6)
80001eb0:	01a78e63          	beq	a5,s10,80001ecc <galton+0x624>
80001eb4:	0004a303          	lw	t1,0(s1)
80001eb8:	01100793          	li	a5,17
80001ebc:	00092503          	lw	a0,0(s2)
80001ec0:	026787b3          	mul	a5,a5,t1
80001ec4:	00a787b3          	add	a5,a5,a0
80001ec8:	ec5ff06f          	j	80001d8c <galton+0x4e4>
80001ecc:	000f0293          	mv	t0,t5
80001ed0:	00100f13          	li	t5,1
80001ed4:	e45ff06f          	j	80001d18 <galton+0x470>

80001ed8 <bf>:
80001ed8:	fd010113          	addi	sp,sp,-48
80001edc:	00c00513          	li	a0,12
80001ee0:	02112623          	sw	ra,44(sp)
80001ee4:	02812423          	sw	s0,40(sp)
80001ee8:	03212023          	sw	s2,32(sp)
80001eec:	01312e23          	sw	s3,28(sp)
80001ef0:	01412c23          	sw	s4,24(sp)
80001ef4:	01512a23          	sw	s5,20(sp)
80001ef8:	01612823          	sw	s6,16(sp)
80001efc:	01712623          	sw	s7,12(sp)
80001f00:	01812423          	sw	s8,8(sp)
80001f04:	01912223          	sw	s9,4(sp)
80001f08:	01a12023          	sw	s10,0(sp)
80001f0c:	02912223          	sw	s1,36(sp)
80001f10:	4f5000ef          	jal	80002c04 <malloc>
80001f14:	00c00613          	li	a2,12
80001f18:	00000593          	li	a1,0
80001f1c:	00050993          	mv	s3,a0
80001f20:	580000ef          	jal	800024a0 <memset>
80001f24:	00001517          	auipc	a0,0x1
80001f28:	db050513          	addi	a0,a0,-592 # 80002cd4 <_etext>
80001f2c:	000a0cb7          	lui	s9,0xa0
80001f30:	5e8000ef          	jal	80002518 <printf>
80001f34:	00001a97          	auipc	s5,0x1
80001f38:	e7da8a93          	addi	s5,s5,-387 # 80002db1 <_etext+0xdd>
80001f3c:	00000913          	li	s2,0
80001f40:	00000a13          	li	s4,0
80001f44:	00000b13          	li	s6,0
80001f48:	02000413          	li	s0,32
80001f4c:	05b00d13          	li	s10,91
80001f50:	05d00b93          	li	s7,93
80001f54:	01300c13          	li	s8,19
80001f58:	00fc8c93          	addi	s9,s9,15 # a000f <_entry_offset+0xa000f>
80001f5c:	01a40863          	beq	s0,s10,80001f6c <bf+0x94>
80001f60:	228d7063          	bgeu	s10,s0,80002180 <bf+0x2a8>
80001f64:	05741663          	bne	s0,s7,80001fb0 <bf+0xd8>
80001f68:	040a0463          	beqz	s4,80001fb0 <bf+0xd8>
80001f6c:	00c00513          	li	a0,12
80001f70:	495000ef          	jal	80002c04 <malloc>
80001f74:	00050493          	mv	s1,a0
80001f78:	28050a63          	beqz	a0,8000220c <bf+0x334>
80001f7c:	00c00613          	li	a2,12
80001f80:	00000593          	li	a1,0
80001f84:	51c000ef          	jal	800024a0 <memset>
80001f88:	220b0263          	beqz	s6,800021ac <bf+0x2d4>
80001f8c:	009b2223          	sw	s1,4(s6)
80001f90:	00848023          	sb	s0,0(s1)
80001f94:	21a40463          	beq	s0,s10,8000219c <bf+0x2c4>
80001f98:	00048b13          	mv	s6,s1
80001f9c:	01741a63          	bne	s0,s7,80001fb0 <bf+0xd8>
80001fa0:	0144a423          	sw	s4,8(s1)
80001fa4:	008a2783          	lw	a5,8(s4)
80001fa8:	009a2423          	sw	s1,8(s4)
80001fac:	00078a13          	mv	s4,a5
80001fb0:	000ac403          	lbu	s0,0(s5)
80001fb4:	001a8a93          	addi	s5,s5,1
80001fb8:	fa0412e3          	bnez	s0,80001f5c <bf+0x84>
80001fbc:	02000713          	li	a4,32
80001fc0:	000a0c63          	beqz	s4,80001fd8 <bf+0x100>
80001fc4:	000a0793          	mv	a5,s4
80001fc8:	008a2a03          	lw	s4,8(s4)
80001fcc:	0007a423          	sw	zero,8(a5)
80001fd0:	00e78023          	sb	a4,0(a5)
80001fd4:	fe0a18e3          	bnez	s4,80001fc4 <bf+0xec>
80001fd8:	00098493          	mv	s1,s3
80001fdc:	00090413          	mv	s0,s2
80001fe0:	22090263          	beqz	s2,80002204 <bf+0x32c>
80001fe4:	03200b13          	li	s6,50
80001fe8:	00006a17          	auipc	s4,0x6
80001fec:	b2ca0a13          	addi	s4,s4,-1236 # 80007b14 <minute+0xf00>
80001ff0:	00a00c13          	li	s8,10
80001ff4:	00007b97          	auipc	s7,0x7
80001ff8:	e30b8b93          	addi	s7,s7,-464 # 80008e24 <x.0>
80001ffc:	00007c97          	auipc	s9,0x7
80002000:	e2cc8c93          	addi	s9,s9,-468 # 80008e28 <y.1>
80002004:	00044783          	lbu	a5,0(s0)
80002008:	fd578793          	addi	a5,a5,-43
8000200c:	0ff7f793          	zext.b	a5,a5
80002010:	02fb6263          	bltu	s6,a5,80002034 <bf+0x15c>
80002014:	00279793          	slli	a5,a5,0x2
80002018:	014787b3          	add	a5,a5,s4
8000201c:	0007a783          	lw	a5,0(a5)
80002020:	014787b3          	add	a5,a5,s4
80002024:	00078067          	jr	a5
80002028:	0004c783          	lbu	a5,0(s1)
8000202c:	00078463          	beqz	a5,80002034 <bf+0x15c>
80002030:	00842403          	lw	s0,8(s0)
80002034:	00442403          	lw	s0,4(s0)
80002038:	fc0416e3          	bnez	s0,80002004 <bf+0x12c>
8000203c:	00098c63          	beqz	s3,80002054 <bf+0x17c>
80002040:	00098513          	mv	a0,s3
80002044:	0049a983          	lw	s3,4(s3)
80002048:	489000ef          	jal	80002cd0 <free>
8000204c:	fe099ae3          	bnez	s3,80002040 <bf+0x168>
80002050:	00090a63          	beqz	s2,80002064 <bf+0x18c>
80002054:	00090513          	mv	a0,s2
80002058:	00492903          	lw	s2,4(s2)
8000205c:	475000ef          	jal	80002cd0 <free>
80002060:	fe091ae3          	bnez	s2,80002054 <bf+0x17c>
80002064:	02c12083          	lw	ra,44(sp)
80002068:	02812403          	lw	s0,40(sp)
8000206c:	02412483          	lw	s1,36(sp)
80002070:	02012903          	lw	s2,32(sp)
80002074:	01c12983          	lw	s3,28(sp)
80002078:	01812a03          	lw	s4,24(sp)
8000207c:	01412a83          	lw	s5,20(sp)
80002080:	01012b03          	lw	s6,16(sp)
80002084:	00c12b83          	lw	s7,12(sp)
80002088:	00812c03          	lw	s8,8(sp)
8000208c:	00412c83          	lw	s9,4(sp)
80002090:	00012d03          	lw	s10,0(sp)
80002094:	03010113          	addi	sp,sp,48
80002098:	00008067          	ret
8000209c:	0004c783          	lbu	a5,0(s1)
800020a0:	f8079ae3          	bnez	a5,80002034 <bf+0x15c>
800020a4:	00842403          	lw	s0,8(s0)
800020a8:	f8dff06f          	j	80002034 <bf+0x15c>
800020ac:	0044a783          	lw	a5,4(s1)
800020b0:	0a078263          	beqz	a5,80002154 <bf+0x27c>
800020b4:	00078493          	mv	s1,a5
800020b8:	00442403          	lw	s0,4(s0)
800020bc:	f40414e3          	bnez	s0,80002004 <bf+0x12c>
800020c0:	f7dff06f          	j	8000203c <bf+0x164>
800020c4:	0084a483          	lw	s1,8(s1)
800020c8:	f60496e3          	bnez	s1,80002034 <bf+0x15c>
800020cc:	00004517          	auipc	a0,0x4
800020d0:	a9c50513          	addi	a0,a0,-1380 # 80005b68 <_etext+0x2e94>
800020d4:	444000ef          	jal	80002518 <printf>
800020d8:	00100513          	li	a0,1
800020dc:	150000ef          	jal	8000222c <halt>
800020e0:	0004c683          	lbu	a3,0(s1)
800020e4:	0d868863          	beq	a3,s8,800021b4 <bf+0x2dc>
800020e8:	000ba783          	lw	a5,0(s7)
800020ec:	0017f713          	andi	a4,a5,1
800020f0:	0e070263          	beqz	a4,800021d4 <bf+0x2fc>
800020f4:	00442403          	lw	s0,4(s0)
800020f8:	00178793          	addi	a5,a5,1
800020fc:	00fba023          	sw	a5,0(s7)
80002100:	f00412e3          	bnez	s0,80002004 <bf+0x12c>
80002104:	f39ff06f          	j	8000203c <bf+0x164>
80002108:	0004c783          	lbu	a5,0(s1)
8000210c:	fff78793          	addi	a5,a5,-1
80002110:	00f48023          	sb	a5,0(s1)
80002114:	00442403          	lw	s0,4(s0)
80002118:	ee0416e3          	bnez	s0,80002004 <bf+0x12c>
8000211c:	f21ff06f          	j	8000203c <bf+0x164>
80002120:	000ac783          	lbu	a5,0(s5)
80002124:	00078463          	beqz	a5,8000212c <bf+0x254>
80002128:	00f48023          	sb	a5,0(s1)
8000212c:	00442403          	lw	s0,4(s0)
80002130:	001a8a93          	addi	s5,s5,1
80002134:	ec0418e3          	bnez	s0,80002004 <bf+0x12c>
80002138:	f05ff06f          	j	8000203c <bf+0x164>
8000213c:	0004c783          	lbu	a5,0(s1)
80002140:	00178793          	addi	a5,a5,1
80002144:	00f48023          	sb	a5,0(s1)
80002148:	00442403          	lw	s0,4(s0)
8000214c:	ea041ce3          	bnez	s0,80002004 <bf+0x12c>
80002150:	eedff06f          	j	8000203c <bf+0x164>
80002154:	00c00513          	li	a0,12
80002158:	2ad000ef          	jal	80002c04 <malloc>
8000215c:	00a4a223          	sw	a0,4(s1)
80002160:	0a050663          	beqz	a0,8000220c <bf+0x334>
80002164:	00c00613          	li	a2,12
80002168:	00000593          	li	a1,0
8000216c:	334000ef          	jal	800024a0 <memset>
80002170:	0044a783          	lw	a5,4(s1)
80002174:	0097a423          	sw	s1,8(a5)
80002178:	00078493          	mv	s1,a5
8000217c:	f3dff06f          	j	800020b8 <bf+0x1e0>
80002180:	fd540793          	addi	a5,s0,-43
80002184:	0ff7f793          	zext.b	a5,a5
80002188:	e2fc64e3          	bltu	s8,a5,80001fb0 <bf+0xd8>
8000218c:	00fcd7b3          	srl	a5,s9,a5
80002190:	0017f793          	andi	a5,a5,1
80002194:	dc079ce3          	bnez	a5,80001f6c <bf+0x94>
80002198:	e19ff06f          	j	80001fb0 <bf+0xd8>
8000219c:	0144a423          	sw	s4,8(s1)
800021a0:	00048b13          	mv	s6,s1
800021a4:	00048a13          	mv	s4,s1
800021a8:	e09ff06f          	j	80001fb0 <bf+0xd8>
800021ac:	00048913          	mv	s2,s1
800021b0:	de1ff06f          	j	80001f90 <bf+0xb8>
800021b4:	000ca783          	lw	a5,0(s9)
800021b8:	00442403          	lw	s0,4(s0)
800021bc:	00007717          	auipc	a4,0x7
800021c0:	c6072423          	sw	zero,-920(a4) # 80008e24 <x.0>
800021c4:	00178793          	addi	a5,a5,1
800021c8:	00fca023          	sw	a5,0(s9)
800021cc:	e2041ce3          	bnez	s0,80002004 <bf+0x12c>
800021d0:	e6dff06f          	j	8000203c <bf+0x164>
800021d4:	01f7d613          	srli	a2,a5,0x1f
800021d8:	00f60633          	add	a2,a2,a5
800021dc:	00007597          	auipc	a1,0x7
800021e0:	c4c5a583          	lw	a1,-948(a1) # 80008e28 <y.1>
800021e4:	40165613          	srai	a2,a2,0x1
800021e8:	00160613          	addi	a2,a2,1
800021ec:	00158593          	addi	a1,a1,1
800021f0:	00001517          	auipc	a0,0x1
800021f4:	af050513          	addi	a0,a0,-1296 # 80002ce0 <_etext+0xc>
800021f8:	320000ef          	jal	80002518 <printf>
800021fc:	000ba783          	lw	a5,0(s7)
80002200:	ef5ff06f          	j	800020f4 <bf+0x21c>
80002204:	e2099ee3          	bnez	s3,80002040 <bf+0x168>
80002208:	e5dff06f          	j	80002064 <bf+0x18c>
8000220c:	00004517          	auipc	a0,0x4
80002210:	94050513          	addi	a0,a0,-1728 # 80005b4c <_etext+0x2e78>
80002214:	304000ef          	jal	80002518 <printf>
80002218:	00100513          	li	a0,1
8000221c:	010000ef          	jal	8000222c <halt>

80002220 <putch>:
80002220:	a00007b7          	lui	a5,0xa0000
80002224:	3ea78c23          	sb	a0,1016(a5) # a00003f8 <_end+0x1ffef3f8>
80002228:	00008067          	ret

8000222c <halt>:
8000222c:	00050513          	mv	a0,a0
80002230:	00100073          	ebreak
80002234:	0000006f          	j	80002234 <halt+0x8>

80002238 <_trm_init>:
80002238:	ff010113          	addi	sp,sp,-16
8000223c:	00006517          	auipc	a0,0x6
80002240:	9a450513          	addi	a0,a0,-1628 # 80007be0 <mainargs>
80002244:	00112623          	sw	ra,12(sp)
80002248:	844ff0ef          	jal	8000128c <main>
8000224c:	00050513          	mv	a0,a0
80002250:	00100073          	ebreak
80002254:	0000006f          	j	80002254 <_trm_init+0x1c>

80002258 <__am_timer_config>:
80002258:	00100793          	li	a5,1
8000225c:	00f50023          	sb	a5,0(a0)
80002260:	00f500a3          	sb	a5,1(a0)
80002264:	00008067          	ret

80002268 <__am_input_config>:
80002268:	00100793          	li	a5,1
8000226c:	00f50023          	sb	a5,0(a0)
80002270:	00008067          	ret

80002274 <__am_uart_config>:
80002274:	00050023          	sb	zero,0(a0)
80002278:	00008067          	ret

8000227c <__am_net_config>:
8000227c:	00050023          	sb	zero,0(a0)
80002280:	00008067          	ret

80002284 <fail>:
80002284:	ff010113          	addi	sp,sp,-16
80002288:	00812423          	sw	s0,8(sp)
8000228c:	00112623          	sw	ra,12(sp)
80002290:	00004417          	auipc	s0,0x4
80002294:	8ec40413          	addi	s0,s0,-1812 # 80005b7c <_etext+0x2ea8>
80002298:	04100513          	li	a0,65
8000229c:	f85ff0ef          	jal	80002220 <putch>
800022a0:	00144503          	lbu	a0,1(s0)
800022a4:	00140413          	addi	s0,s0,1
800022a8:	fe051ae3          	bnez	a0,8000229c <fail+0x18>
800022ac:	00004417          	auipc	s0,0x4
800022b0:	8dc40413          	addi	s0,s0,-1828 # 80005b88 <_etext+0x2eb4>
800022b4:	06100513          	li	a0,97
800022b8:	f69ff0ef          	jal	80002220 <putch>
800022bc:	00144503          	lbu	a0,1(s0)
800022c0:	00140413          	addi	s0,s0,1
800022c4:	fe051ae3          	bnez	a0,800022b8 <fail+0x34>
800022c8:	00004417          	auipc	s0,0x4
800022cc:	8dc40413          	addi	s0,s0,-1828 # 80005ba4 <_etext+0x2ed0>
800022d0:	02000513          	li	a0,32
800022d4:	f4dff0ef          	jal	80002220 <putch>
800022d8:	00144503          	lbu	a0,1(s0)
800022dc:	00140413          	addi	s0,s0,1
800022e0:	fe051ae3          	bnez	a0,800022d4 <fail+0x50>
800022e4:	00100513          	li	a0,1
800022e8:	f45ff0ef          	jal	8000222c <halt>

800022ec <ioe_init>:
800022ec:	ff010113          	addi	sp,sp,-16
800022f0:	00112623          	sw	ra,12(sp)
800022f4:	00006797          	auipc	a5,0x6
800022f8:	99c78793          	addi	a5,a5,-1636 # 80007c90 <lut>
800022fc:	00006697          	auipc	a3,0x6
80002300:	b9468693          	addi	a3,a3,-1132 # 80007e90 <next>
80002304:	00000617          	auipc	a2,0x0
80002308:	f8060613          	addi	a2,a2,-128 # 80002284 <fail>
8000230c:	00c0006f          	j	80002318 <ioe_init+0x2c>
80002310:	00478793          	addi	a5,a5,4
80002314:	00d78c63          	beq	a5,a3,8000232c <ioe_init+0x40>
80002318:	0007a703          	lw	a4,0(a5)
8000231c:	fe071ae3          	bnez	a4,80002310 <ioe_init+0x24>
80002320:	00c7a023          	sw	a2,0(a5)
80002324:	00478793          	addi	a5,a5,4
80002328:	fed798e3          	bne	a5,a3,80002318 <ioe_init+0x2c>
8000232c:	0a4000ef          	jal	800023d0 <__am_gpu_init>
80002330:	034000ef          	jal	80002364 <__am_timer_init>
80002334:	0dc000ef          	jal	80002410 <__am_audio_init>
80002338:	00c12083          	lw	ra,12(sp)
8000233c:	00100513          	li	a0,1
80002340:	01010113          	addi	sp,sp,16
80002344:	00008067          	ret

80002348 <ioe_read>:
80002348:	00251513          	slli	a0,a0,0x2
8000234c:	00006797          	auipc	a5,0x6
80002350:	94478793          	addi	a5,a5,-1724 # 80007c90 <lut>
80002354:	00a787b3          	add	a5,a5,a0
80002358:	0007a783          	lw	a5,0(a5)
8000235c:	00058513          	mv	a0,a1
80002360:	00078067          	jr	a5

80002364 <__am_timer_init>:
80002364:	00008067          	ret

80002368 <__am_timer_uptime>:
80002368:	a0000737          	lui	a4,0xa0000
8000236c:	a00007b7          	lui	a5,0xa0000
80002370:	04870713          	addi	a4,a4,72 # a0000048 <_end+0x1ffef048>
80002374:	04c7a683          	lw	a3,76(a5) # a000004c <_end+0x1ffef04c>
80002378:	00072703          	lw	a4,0(a4)
8000237c:	00d52223          	sw	a3,4(a0)
80002380:	00e52023          	sw	a4,0(a0)
80002384:	00008067          	ret

80002388 <__am_timer_rtc>:
80002388:	76c00793          	li	a5,1900
8000238c:	00052a23          	sw	zero,20(a0)
80002390:	00052823          	sw	zero,16(a0)
80002394:	00052623          	sw	zero,12(a0)
80002398:	00052423          	sw	zero,8(a0)
8000239c:	00052223          	sw	zero,4(a0)
800023a0:	00f52023          	sw	a5,0(a0)
800023a4:	00008067          	ret

800023a8 <__am_input_keybrd>:
800023a8:	a00006b7          	lui	a3,0xa0000
800023ac:	0606a783          	lw	a5,96(a3) # a0000060 <_end+0x1ffef060>
800023b0:	ffff8637          	lui	a2,0xffff8
800023b4:	fff60613          	addi	a2,a2,-1 # ffff7fff <_end+0x7ffe6fff>
800023b8:	00f7d713          	srli	a4,a5,0xf
800023bc:	00177713          	andi	a4,a4,1
800023c0:	00c7f7b3          	and	a5,a5,a2
800023c4:	00e50023          	sb	a4,0(a0)
800023c8:	00f52223          	sw	a5,4(a0)
800023cc:	00008067          	ret

800023d0 <__am_gpu_init>:
800023d0:	00008067          	ret

800023d4 <__am_gpu_config>:
800023d4:	00100793          	li	a5,1
800023d8:	00f51023          	sh	a5,0(a0)
800023dc:	00052223          	sw	zero,4(a0)
800023e0:	00052423          	sw	zero,8(a0)
800023e4:	00052623          	sw	zero,12(a0)
800023e8:	00008067          	ret

800023ec <__am_gpu_fbdraw>:
800023ec:	01454783          	lbu	a5,20(a0)
800023f0:	00078863          	beqz	a5,80002400 <__am_gpu_fbdraw+0x14>
800023f4:	a00007b7          	lui	a5,0xa0000
800023f8:	00100713          	li	a4,1
800023fc:	10e7a223          	sw	a4,260(a5) # a0000104 <_end+0x1ffef104>
80002400:	00008067          	ret

80002404 <__am_gpu_status>:
80002404:	00100793          	li	a5,1
80002408:	00f50023          	sb	a5,0(a0)
8000240c:	00008067          	ret

80002410 <__am_audio_init>:
80002410:	00008067          	ret

80002414 <__am_audio_config>:
80002414:	00050023          	sb	zero,0(a0)
80002418:	00008067          	ret

8000241c <__am_audio_ctrl>:
8000241c:	00008067          	ret

80002420 <__am_audio_status>:
80002420:	00052023          	sw	zero,0(a0)
80002424:	00008067          	ret

80002428 <__am_audio_play>:
80002428:	00008067          	ret

8000242c <__am_disk_config>:
8000242c:	00050023          	sb	zero,0(a0)
80002430:	00008067          	ret

80002434 <__am_disk_status>:
80002434:	00008067          	ret

80002438 <__am_disk_blkio>:
80002438:	00008067          	ret

8000243c <strlen>:
8000243c:	00050713          	mv	a4,a0
80002440:	02050263          	beqz	a0,80002464 <strlen+0x28>
80002444:	00054783          	lbu	a5,0(a0)
80002448:	00000513          	li	a0,0
8000244c:	02078063          	beqz	a5,8000246c <strlen+0x30>
80002450:	00150513          	addi	a0,a0,1
80002454:	00a707b3          	add	a5,a4,a0
80002458:	0007c783          	lbu	a5,0(a5)
8000245c:	fe079ae3          	bnez	a5,80002450 <strlen+0x14>
80002460:	00008067          	ret
80002464:	00000513          	li	a0,0
80002468:	00008067          	ret
8000246c:	00008067          	ret

80002470 <strcpy>:
80002470:	02058663          	beqz	a1,8000249c <strcpy+0x2c>
80002474:	02050463          	beqz	a0,8000249c <strcpy+0x2c>
80002478:	0005c783          	lbu	a5,0(a1)
8000247c:	00050713          	mv	a4,a0
80002480:	00078c63          	beqz	a5,80002498 <strcpy+0x28>
80002484:	00f70023          	sb	a5,0(a4)
80002488:	0015c783          	lbu	a5,1(a1)
8000248c:	00170713          	addi	a4,a4,1
80002490:	00158593          	addi	a1,a1,1
80002494:	fe0798e3          	bnez	a5,80002484 <strcpy+0x14>
80002498:	00070023          	sb	zero,0(a4)
8000249c:	00008067          	ret

800024a0 <memset>:
800024a0:	02050063          	beqz	a0,800024c0 <memset+0x20>
800024a4:	0ff5f593          	zext.b	a1,a1
800024a8:	00060c63          	beqz	a2,800024c0 <memset+0x20>
800024ac:	00c50633          	add	a2,a0,a2
800024b0:	00050793          	mv	a5,a0
800024b4:	00b78023          	sb	a1,0(a5)
800024b8:	00178793          	addi	a5,a5,1
800024bc:	fef61ce3          	bne	a2,a5,800024b4 <memset+0x14>
800024c0:	00008067          	ret

800024c4 <memmove>:
800024c4:	04050863          	beqz	a0,80002514 <memmove+0x50>
800024c8:	04058663          	beqz	a1,80002514 <memmove+0x50>
800024cc:	04060463          	beqz	a2,80002514 <memmove+0x50>
800024d0:	04b50263          	beq	a0,a1,80002514 <memmove+0x50>
800024d4:	02b57263          	bgeu	a0,a1,800024f8 <memmove+0x34>
800024d8:	00c50633          	add	a2,a0,a2
800024dc:	00050793          	mv	a5,a0
800024e0:	0005c703          	lbu	a4,0(a1)
800024e4:	00178793          	addi	a5,a5,1
800024e8:	00158593          	addi	a1,a1,1
800024ec:	fee78fa3          	sb	a4,-1(a5)
800024f0:	fef618e3          	bne	a2,a5,800024e0 <memmove+0x1c>
800024f4:	00008067          	ret
800024f8:	00c507b3          	add	a5,a0,a2
800024fc:	00c585b3          	add	a1,a1,a2
80002500:	fff5c703          	lbu	a4,-1(a1)
80002504:	fff78793          	addi	a5,a5,-1
80002508:	fff58593          	addi	a1,a1,-1
8000250c:	00e78023          	sb	a4,0(a5)
80002510:	fef518e3          	bne	a0,a5,80002500 <memmove+0x3c>
80002514:	00008067          	ret

80002518 <printf>:
80002518:	e9010113          	addi	sp,sp,-368
8000251c:	13312e23          	sw	s3,316(sp)
80002520:	01010993          	addi	s3,sp,16
80002524:	14812423          	sw	s0,328(sp)
80002528:	16e12023          	sw	a4,352(sp)
8000252c:	16f12223          	sw	a5,356(sp)
80002530:	14112623          	sw	ra,332(sp)
80002534:	14912223          	sw	s1,324(sp)
80002538:	00050413          	mv	s0,a0
8000253c:	14b12a23          	sw	a1,340(sp)
80002540:	14c12c23          	sw	a2,344(sp)
80002544:	14d12e23          	sw	a3,348(sp)
80002548:	17012423          	sw	a6,360(sp)
8000254c:	17112623          	sw	a7,364(sp)
80002550:	00098793          	mv	a5,s3
80002554:	11010713          	addi	a4,sp,272
80002558:	0007a023          	sw	zero,0(a5)
8000255c:	00478793          	addi	a5,a5,4
80002560:	fef71ce3          	bne	a4,a5,80002558 <printf+0x40>
80002564:	00044783          	lbu	a5,0(s0)
80002568:	15410713          	addi	a4,sp,340
8000256c:	00e12623          	sw	a4,12(sp)
80002570:	36078863          	beqz	a5,800028e0 <printf+0x3c8>
80002574:	13412c23          	sw	s4,312(sp)
80002578:	13512a23          	sw	s5,308(sp)
8000257c:	13612823          	sw	s6,304(sp)
80002580:	13712623          	sw	s7,300(sp)
80002584:	13812423          	sw	s8,296(sp)
80002588:	13912223          	sw	s9,292(sp)
8000258c:	15212023          	sw	s2,320(sp)
80002590:	13a12023          	sw	s10,288(sp)
80002594:	11b12e23          	sw	s11,284(sp)
80002598:	00098493          	mv	s1,s3
8000259c:	02500c93          	li	s9,37
800025a0:	07800a13          	li	s4,120
800025a4:	06200a93          	li	s5,98
800025a8:	06400c13          	li	s8,100
800025ac:	01500b93          	li	s7,21
800025b0:	00005b17          	auipc	s6,0x5
800025b4:	670b0b13          	addi	s6,s6,1648 # 80007c20 <mainargs+0x40>
800025b8:	01c0006f          	j	800025d4 <printf+0xbc>
800025bc:	00f48023          	sb	a5,0(s1)
800025c0:	00040913          	mv	s2,s0
800025c4:	00148493          	addi	s1,s1,1
800025c8:	00194783          	lbu	a5,1(s2)
800025cc:	00190413          	addi	s0,s2,1
800025d0:	08078e63          	beqz	a5,8000266c <printf+0x154>
800025d4:	00144703          	lbu	a4,1(s0)
800025d8:	00140913          	addi	s2,s0,1
800025dc:	ff9790e3          	bne	a5,s9,800025bc <printf+0xa4>
800025e0:	38ea6463          	bltu	s4,a4,80002968 <printf+0x450>
800025e4:	16eaf863          	bgeu	s5,a4,80002754 <printf+0x23c>
800025e8:	f9d70793          	addi	a5,a4,-99
800025ec:	0ff7f793          	zext.b	a5,a5
800025f0:	00fbec63          	bltu	s7,a5,80002608 <printf+0xf0>
800025f4:	00279793          	slli	a5,a5,0x2
800025f8:	016787b3          	add	a5,a5,s6
800025fc:	0007a783          	lw	a5,0(a5)
80002600:	016787b3          	add	a5,a5,s6
80002604:	00078067          	jr	a5
80002608:	fd070d13          	addi	s10,a4,-48
8000260c:	0ffd7713          	zext.b	a4,s10
80002610:	00900793          	li	a5,9
80002614:	34e7ea63          	bltu	a5,a4,80002968 <printf+0x450>
80002618:	00c12783          	lw	a5,12(sp)
8000261c:	00244703          	lbu	a4,2(s0)
80002620:	00240913          	addi	s2,s0,2
80002624:	00478613          	addi	a2,a5,4
80002628:	00c12623          	sw	a2,12(sp)
8000262c:	0007ad83          	lw	s11,0(a5)
80002630:	1d470c63          	beq	a4,s4,80002808 <printf+0x2f0>
80002634:	2b871c63          	bne	a4,s8,800028ec <printf+0x3d4>
80002638:	00a00613          	li	a2,10
8000263c:	00048593          	mv	a1,s1
80002640:	000d8513          	mv	a0,s11
80002644:	48c000ef          	jal	80002ad0 <itoa>
80002648:	21a54e63          	blt	a0,s10,80002864 <printf+0x34c>
8000264c:	00048593          	mv	a1,s1
80002650:	00a00613          	li	a2,10
80002654:	000d8513          	mv	a0,s11
80002658:	478000ef          	jal	80002ad0 <itoa>
8000265c:	00194783          	lbu	a5,1(s2)
80002660:	00a484b3          	add	s1,s1,a0
80002664:	00190413          	addi	s0,s2,1
80002668:	f60796e3          	bnez	a5,800025d4 <printf+0xbc>
8000266c:	14012903          	lw	s2,320(sp)
80002670:	13812a03          	lw	s4,312(sp)
80002674:	13412a83          	lw	s5,308(sp)
80002678:	13012b03          	lw	s6,304(sp)
8000267c:	12c12b83          	lw	s7,300(sp)
80002680:	12812c03          	lw	s8,296(sp)
80002684:	12412c83          	lw	s9,292(sp)
80002688:	12012d03          	lw	s10,288(sp)
8000268c:	11c12d83          	lw	s11,284(sp)
80002690:	41348433          	sub	s0,s1,s3
80002694:	00048023          	sb	zero,0(s1)
80002698:	01014503          	lbu	a0,16(sp)
8000269c:	00050a63          	beqz	a0,800026b0 <printf+0x198>
800026a0:	b81ff0ef          	jal	80002220 <putch>
800026a4:	0019c503          	lbu	a0,1(s3)
800026a8:	00198993          	addi	s3,s3,1
800026ac:	fe051ae3          	bnez	a0,800026a0 <printf+0x188>
800026b0:	14c12083          	lw	ra,332(sp)
800026b4:	00040513          	mv	a0,s0
800026b8:	14812403          	lw	s0,328(sp)
800026bc:	14412483          	lw	s1,324(sp)
800026c0:	13c12983          	lw	s3,316(sp)
800026c4:	17010113          	addi	sp,sp,368
800026c8:	00008067          	ret
800026cc:	00244783          	lbu	a5,2(s0)
800026d0:	00240913          	addi	s2,s0,2
800026d4:	03878863          	beq	a5,s8,80002704 <printf+0x1ec>
800026d8:	07800713          	li	a4,120
800026dc:	36e79e63          	bne	a5,a4,80002a58 <printf+0x540>
800026e0:	00c12783          	lw	a5,12(sp)
800026e4:	01000613          	li	a2,16
800026e8:	0007a503          	lw	a0,0(a5)
800026ec:	00048593          	mv	a1,s1
800026f0:	00478793          	addi	a5,a5,4
800026f4:	00f12623          	sw	a5,12(sp)
800026f8:	3d8000ef          	jal	80002ad0 <itoa>
800026fc:	00a484b3          	add	s1,s1,a0
80002700:	ec9ff06f          	j	800025c8 <printf+0xb0>
80002704:	00c12783          	lw	a5,12(sp)
80002708:	00a00613          	li	a2,10
8000270c:	fddff06f          	j	800026e8 <printf+0x1d0>
80002710:	00c12783          	lw	a5,12(sp)
80002714:	00148493          	addi	s1,s1,1
80002718:	0007a703          	lw	a4,0(a5)
8000271c:	00478793          	addi	a5,a5,4
80002720:	00f12623          	sw	a5,12(sp)
80002724:	fee48fa3          	sb	a4,-1(s1)
80002728:	ea1ff06f          	j	800025c8 <printf+0xb0>
8000272c:	00c12783          	lw	a5,12(sp)
80002730:	00048513          	mv	a0,s1
80002734:	0007a583          	lw	a1,0(a5)
80002738:	00478793          	addi	a5,a5,4
8000273c:	00f12623          	sw	a5,12(sp)
80002740:	d31ff0ef          	jal	80002470 <strcpy>
80002744:	00048513          	mv	a0,s1
80002748:	cf5ff0ef          	jal	8000243c <strlen>
8000274c:	00a484b3          	add	s1,s1,a0
80002750:	e79ff06f          	j	800025c8 <printf+0xb0>
80002754:	06f70e63          	beq	a4,a5,800027d0 <printf+0x2b8>
80002758:	03000793          	li	a5,48
8000275c:	eaf716e3          	bne	a4,a5,80002608 <printf+0xf0>
80002760:	00c12783          	lw	a5,12(sp)
80002764:	00244d03          	lbu	s10,2(s0)
80002768:	00344703          	lbu	a4,3(s0)
8000276c:	00478613          	addi	a2,a5,4
80002770:	00c12623          	sw	a2,12(sp)
80002774:	0007ad83          	lw	s11,0(a5)
80002778:	fd0d0d13          	addi	s10,s10,-48
8000277c:	00340913          	addi	s2,s0,3
80002780:	05470e63          	beq	a4,s4,800027dc <printf+0x2c4>
80002784:	25871e63          	bne	a4,s8,800029e0 <printf+0x4c8>
80002788:	00a00613          	li	a2,10
8000278c:	00048593          	mv	a1,s1
80002790:	000d8513          	mv	a0,s11
80002794:	33c000ef          	jal	80002ad0 <itoa>
80002798:	eba55ae3          	bge	a0,s10,8000264c <printf+0x134>
8000279c:	00000413          	li	s0,0
800027a0:	0140006f          	j	800027b4 <printf+0x29c>
800027a4:	03000793          	li	a5,48
800027a8:	00f48023          	sb	a5,0(s1)
800027ac:	00140413          	addi	s0,s0,1
800027b0:	00148493          	addi	s1,s1,1
800027b4:	00a00613          	li	a2,10
800027b8:	00048593          	mv	a1,s1
800027bc:	000d8513          	mv	a0,s11
800027c0:	310000ef          	jal	80002ad0 <itoa>
800027c4:	40ad0533          	sub	a0,s10,a0
800027c8:	fca44ee3          	blt	s0,a0,800027a4 <printf+0x28c>
800027cc:	e81ff06f          	j	8000264c <printf+0x134>
800027d0:	01948023          	sb	s9,0(s1)
800027d4:	00148493          	addi	s1,s1,1
800027d8:	df1ff06f          	j	800025c8 <printf+0xb0>
800027dc:	01000613          	li	a2,16
800027e0:	00048593          	mv	a1,s1
800027e4:	000d8513          	mv	a0,s11
800027e8:	2e8000ef          	jal	80002ad0 <itoa>
800027ec:	0ba54663          	blt	a0,s10,80002898 <printf+0x380>
800027f0:	00048593          	mv	a1,s1
800027f4:	01000613          	li	a2,16
800027f8:	000d8513          	mv	a0,s11
800027fc:	2d4000ef          	jal	80002ad0 <itoa>
80002800:	00a484b3          	add	s1,s1,a0
80002804:	dc5ff06f          	j	800025c8 <printf+0xb0>
80002808:	01000613          	li	a2,16
8000280c:	00048593          	mv	a1,s1
80002810:	000d8513          	mv	a0,s11
80002814:	2bc000ef          	jal	80002ad0 <itoa>
80002818:	fda55ce3          	bge	a0,s10,800027f0 <printf+0x2d8>
8000281c:	00000413          	li	s0,0
80002820:	0140006f          	j	80002834 <printf+0x31c>
80002824:	02000793          	li	a5,32
80002828:	00f48023          	sb	a5,0(s1)
8000282c:	00140413          	addi	s0,s0,1
80002830:	00148493          	addi	s1,s1,1
80002834:	01000613          	li	a2,16
80002838:	00048593          	mv	a1,s1
8000283c:	000d8513          	mv	a0,s11
80002840:	290000ef          	jal	80002ad0 <itoa>
80002844:	40ad07b3          	sub	a5,s10,a0
80002848:	fcf44ee3          	blt	s0,a5,80002824 <printf+0x30c>
8000284c:	00048593          	mv	a1,s1
80002850:	01000613          	li	a2,16
80002854:	000d8513          	mv	a0,s11
80002858:	278000ef          	jal	80002ad0 <itoa>
8000285c:	00a484b3          	add	s1,s1,a0
80002860:	d69ff06f          	j	800025c8 <printf+0xb0>
80002864:	00000413          	li	s0,0
80002868:	0140006f          	j	8000287c <printf+0x364>
8000286c:	02000793          	li	a5,32
80002870:	00f48023          	sb	a5,0(s1)
80002874:	00140413          	addi	s0,s0,1
80002878:	00148493          	addi	s1,s1,1
8000287c:	00a00613          	li	a2,10
80002880:	00048593          	mv	a1,s1
80002884:	000d8513          	mv	a0,s11
80002888:	248000ef          	jal	80002ad0 <itoa>
8000288c:	40ad0533          	sub	a0,s10,a0
80002890:	fca44ee3          	blt	s0,a0,8000286c <printf+0x354>
80002894:	db9ff06f          	j	8000264c <printf+0x134>
80002898:	00000413          	li	s0,0
8000289c:	0140006f          	j	800028b0 <printf+0x398>
800028a0:	03000793          	li	a5,48
800028a4:	00f48023          	sb	a5,0(s1)
800028a8:	00140413          	addi	s0,s0,1
800028ac:	00148493          	addi	s1,s1,1
800028b0:	01000613          	li	a2,16
800028b4:	00048593          	mv	a1,s1
800028b8:	000d8513          	mv	a0,s11
800028bc:	214000ef          	jal	80002ad0 <itoa>
800028c0:	40ad07b3          	sub	a5,s10,a0
800028c4:	fcf44ee3          	blt	s0,a5,800028a0 <printf+0x388>
800028c8:	00048593          	mv	a1,s1
800028cc:	01000613          	li	a2,16
800028d0:	000d8513          	mv	a0,s11
800028d4:	1fc000ef          	jal	80002ad0 <itoa>
800028d8:	00a484b3          	add	s1,s1,a0
800028dc:	cedff06f          	j	800025c8 <printf+0xb0>
800028e0:	00000413          	li	s0,0
800028e4:	00098493          	mv	s1,s3
800028e8:	dadff06f          	j	80002694 <printf+0x17c>
800028ec:	06500513          	li	a0,101
800028f0:	931ff0ef          	jal	80002220 <putch>
800028f4:	00a00513          	li	a0,10
800028f8:	929ff0ef          	jal	80002220 <putch>
800028fc:	00244503          	lbu	a0,2(s0)
80002900:	00003417          	auipc	s0,0x3
80002904:	27c40413          	addi	s0,s0,636 # 80005b7c <_etext+0x2ea8>
80002908:	919ff0ef          	jal	80002220 <putch>
8000290c:	00a00513          	li	a0,10
80002910:	911ff0ef          	jal	80002220 <putch>
80002914:	04100513          	li	a0,65
80002918:	909ff0ef          	jal	80002220 <putch>
8000291c:	00144503          	lbu	a0,1(s0)
80002920:	00140413          	addi	s0,s0,1
80002924:	fe051ae3          	bnez	a0,80002918 <printf+0x400>
80002928:	00003417          	auipc	s0,0x3
8000292c:	39040413          	addi	s0,s0,912 # 80005cb8 <_etext+0x2fe4>
80002930:	00a00513          	li	a0,10
80002934:	8edff0ef          	jal	80002220 <putch>
80002938:	00144503          	lbu	a0,1(s0)
8000293c:	00140413          	addi	s0,s0,1
80002940:	fe051ae3          	bnez	a0,80002934 <printf+0x41c>
80002944:	00003417          	auipc	s0,0x3
80002948:	38840413          	addi	s0,s0,904 # 80005ccc <_etext+0x2ff8>
8000294c:	02000513          	li	a0,32
80002950:	8d1ff0ef          	jal	80002220 <putch>
80002954:	00144503          	lbu	a0,1(s0)
80002958:	00140413          	addi	s0,s0,1
8000295c:	fe051ae3          	bnez	a0,80002950 <printf+0x438>
80002960:	00100513          	li	a0,1
80002964:	8c9ff0ef          	jal	8000222c <halt>
80002968:	06500513          	li	a0,101
8000296c:	8b5ff0ef          	jal	80002220 <putch>
80002970:	00a00513          	li	a0,10
80002974:	8adff0ef          	jal	80002220 <putch>
80002978:	00144503          	lbu	a0,1(s0)
8000297c:	00003417          	auipc	s0,0x3
80002980:	20040413          	addi	s0,s0,512 # 80005b7c <_etext+0x2ea8>
80002984:	89dff0ef          	jal	80002220 <putch>
80002988:	00a00513          	li	a0,10
8000298c:	895ff0ef          	jal	80002220 <putch>
80002990:	04100513          	li	a0,65
80002994:	88dff0ef          	jal	80002220 <putch>
80002998:	00144503          	lbu	a0,1(s0)
8000299c:	00140413          	addi	s0,s0,1
800029a0:	fe051ae3          	bnez	a0,80002994 <printf+0x47c>
800029a4:	00003417          	auipc	s0,0x3
800029a8:	37040413          	addi	s0,s0,880 # 80005d14 <_etext+0x3040>
800029ac:	00a00513          	li	a0,10
800029b0:	871ff0ef          	jal	80002220 <putch>
800029b4:	00144503          	lbu	a0,1(s0)
800029b8:	00140413          	addi	s0,s0,1
800029bc:	fe051ae3          	bnez	a0,800029b0 <printf+0x498>
800029c0:	00003417          	auipc	s0,0x3
800029c4:	37040413          	addi	s0,s0,880 # 80005d30 <_etext+0x305c>
800029c8:	02000513          	li	a0,32
800029cc:	855ff0ef          	jal	80002220 <putch>
800029d0:	00144503          	lbu	a0,1(s0)
800029d4:	00140413          	addi	s0,s0,1
800029d8:	fe051ae3          	bnez	a0,800029cc <printf+0x4b4>
800029dc:	f85ff06f          	j	80002960 <printf+0x448>
800029e0:	06500513          	li	a0,101
800029e4:	83dff0ef          	jal	80002220 <putch>
800029e8:	00a00513          	li	a0,10
800029ec:	835ff0ef          	jal	80002220 <putch>
800029f0:	00344503          	lbu	a0,3(s0)
800029f4:	00003417          	auipc	s0,0x3
800029f8:	18840413          	addi	s0,s0,392 # 80005b7c <_etext+0x2ea8>
800029fc:	825ff0ef          	jal	80002220 <putch>
80002a00:	00a00513          	li	a0,10
80002a04:	81dff0ef          	jal	80002220 <putch>
80002a08:	04100513          	li	a0,65
80002a0c:	815ff0ef          	jal	80002220 <putch>
80002a10:	00144503          	lbu	a0,1(s0)
80002a14:	00140413          	addi	s0,s0,1
80002a18:	fe051ae3          	bnez	a0,80002a0c <printf+0x4f4>
80002a1c:	00003417          	auipc	s0,0x3
80002a20:	24040413          	addi	s0,s0,576 # 80005c5c <_etext+0x2f88>
80002a24:	00a00513          	li	a0,10
80002a28:	ff8ff0ef          	jal	80002220 <putch>
80002a2c:	00144503          	lbu	a0,1(s0)
80002a30:	00140413          	addi	s0,s0,1
80002a34:	fe051ae3          	bnez	a0,80002a28 <printf+0x510>
80002a38:	00003417          	auipc	s0,0x3
80002a3c:	23840413          	addi	s0,s0,568 # 80005c70 <_etext+0x2f9c>
80002a40:	02000513          	li	a0,32
80002a44:	fdcff0ef          	jal	80002220 <putch>
80002a48:	00144503          	lbu	a0,1(s0)
80002a4c:	00140413          	addi	s0,s0,1
80002a50:	fe051ae3          	bnez	a0,80002a44 <printf+0x52c>
80002a54:	f0dff06f          	j	80002960 <printf+0x448>
80002a58:	06500513          	li	a0,101
80002a5c:	fc4ff0ef          	jal	80002220 <putch>
80002a60:	00a00513          	li	a0,10
80002a64:	fbcff0ef          	jal	80002220 <putch>
80002a68:	00244503          	lbu	a0,2(s0)
80002a6c:	00003417          	auipc	s0,0x3
80002a70:	11040413          	addi	s0,s0,272 # 80005b7c <_etext+0x2ea8>
80002a74:	facff0ef          	jal	80002220 <putch>
80002a78:	00a00513          	li	a0,10
80002a7c:	fa4ff0ef          	jal	80002220 <putch>
80002a80:	04100513          	li	a0,65
80002a84:	f9cff0ef          	jal	80002220 <putch>
80002a88:	00144503          	lbu	a0,1(s0)
80002a8c:	00140413          	addi	s0,s0,1
80002a90:	fe051ae3          	bnez	a0,80002a84 <printf+0x56c>
80002a94:	00003417          	auipc	s0,0x3
80002a98:	16840413          	addi	s0,s0,360 # 80005bfc <_etext+0x2f28>
80002a9c:	00a00513          	li	a0,10
80002aa0:	f80ff0ef          	jal	80002220 <putch>
80002aa4:	00144503          	lbu	a0,1(s0)
80002aa8:	00140413          	addi	s0,s0,1
80002aac:	fe051ae3          	bnez	a0,80002aa0 <printf+0x588>
80002ab0:	00003417          	auipc	s0,0x3
80002ab4:	16440413          	addi	s0,s0,356 # 80005c14 <_etext+0x2f40>
80002ab8:	02000513          	li	a0,32
80002abc:	f64ff0ef          	jal	80002220 <putch>
80002ac0:	00144503          	lbu	a0,1(s0)
80002ac4:	00140413          	addi	s0,s0,1
80002ac8:	fe051ae3          	bnez	a0,80002abc <printf+0x5a4>
80002acc:	e95ff06f          	j	80002960 <printf+0x448>

80002ad0 <itoa>:
80002ad0:	ff010113          	addi	sp,sp,-16
80002ad4:	00112623          	sw	ra,12(sp)
80002ad8:	80000737          	lui	a4,0x80000
80002adc:	00058793          	mv	a5,a1
80002ae0:	0ce50c63          	beq	a0,a4,80002bb8 <itoa+0xe8>
80002ae4:	00050313          	mv	t1,a0
80002ae8:	0a050863          	beqz	a0,80002b98 <itoa+0xc8>
80002aec:	41f55713          	srai	a4,a0,0x1f
80002af0:	00a74833          	xor	a6,a4,a0
80002af4:	40e80833          	sub	a6,a6,a4
80002af8:	00000513          	li	a0,0
80002afc:	00900e13          	li	t3,9
80002b00:	02c865b3          	rem	a1,a6,a2
80002b04:	00050693          	mv	a3,a0
80002b08:	00150513          	addi	a0,a0,1
80002b0c:	0ff5f713          	zext.b	a4,a1
80002b10:	05770893          	addi	a7,a4,87 # 80000057 <ant+0x47>
80002b14:	03070713          	addi	a4,a4,48
80002b18:	0ff77713          	zext.b	a4,a4
80002b1c:	00be5463          	bge	t3,a1,80002b24 <itoa+0x54>
80002b20:	0ff8f713          	zext.b	a4,a7
80002b24:	02c84833          	div	a6,a6,a2
80002b28:	00a785b3          	add	a1,a5,a0
80002b2c:	fee58fa3          	sb	a4,-1(a1)
80002b30:	fc0818e3          	bnez	a6,80002b00 <itoa+0x30>
80002b34:	04034063          	bltz	t1,80002b74 <itoa+0xa4>
80002b38:	00058023          	sb	zero,0(a1)
80002b3c:	40155593          	srai	a1,a0,0x1
80002b40:	06058463          	beqz	a1,80002ba8 <itoa+0xd8>
80002b44:	00d78733          	add	a4,a5,a3
80002b48:	00b785b3          	add	a1,a5,a1
80002b4c:	00074603          	lbu	a2,0(a4)
80002b50:	0007c683          	lbu	a3,0(a5)
80002b54:	00178793          	addi	a5,a5,1
80002b58:	fff70713          	addi	a4,a4,-1
80002b5c:	fec78fa3          	sb	a2,-1(a5)
80002b60:	00d700a3          	sb	a3,1(a4)
80002b64:	feb794e3          	bne	a5,a1,80002b4c <itoa+0x7c>
80002b68:	00c12083          	lw	ra,12(sp)
80002b6c:	01010113          	addi	sp,sp,16
80002b70:	00008067          	ret
80002b74:	00268513          	addi	a0,a3,2
80002b78:	02d00713          	li	a4,45
80002b7c:	00e58023          	sb	a4,0(a1)
80002b80:	00a78633          	add	a2,a5,a0
80002b84:	00168713          	addi	a4,a3,1
80002b88:	00060023          	sb	zero,0(a2)
80002b8c:	40155593          	srai	a1,a0,0x1
80002b90:	00e78733          	add	a4,a5,a4
80002b94:	fb5ff06f          	j	80002b48 <itoa+0x78>
80002b98:	00003597          	auipc	a1,0x3
80002b9c:	1e058593          	addi	a1,a1,480 # 80005d78 <_etext+0x30a4>
80002ba0:	00078513          	mv	a0,a5
80002ba4:	8cdff0ef          	jal	80002470 <strcpy>
80002ba8:	00c12083          	lw	ra,12(sp)
80002bac:	00100513          	li	a0,1
80002bb0:	01010113          	addi	sp,sp,16
80002bb4:	00008067          	ret
80002bb8:	00003597          	auipc	a1,0x3
80002bbc:	1c458593          	addi	a1,a1,452 # 80005d7c <_etext+0x30a8>
80002bc0:	00078513          	mv	a0,a5
80002bc4:	8adff0ef          	jal	80002470 <strcpy>
80002bc8:	00b00513          	li	a0,11
80002bcc:	f9dff06f          	j	80002b68 <itoa+0x98>

80002bd0 <rand>:
80002bd0:	00005697          	auipc	a3,0x5
80002bd4:	2c068693          	addi	a3,a3,704 # 80007e90 <next>
80002bd8:	0006a783          	lw	a5,0(a3)
80002bdc:	41c65737          	lui	a4,0x41c65
80002be0:	e6d70713          	addi	a4,a4,-403 # 41c64e6d <_entry_offset+0x41c64e6d>
80002be4:	02e787b3          	mul	a5,a5,a4
80002be8:	00003737          	lui	a4,0x3
80002bec:	03970713          	addi	a4,a4,57 # 3039 <_entry_offset+0x3039>
80002bf0:	00e787b3          	add	a5,a5,a4
80002bf4:	00179513          	slli	a0,a5,0x1
80002bf8:	00f6a023          	sw	a5,0(a3)
80002bfc:	01155513          	srli	a0,a0,0x11
80002c00:	00008067          	ret

80002c04 <malloc>:
80002c04:	00006717          	auipc	a4,0x6
80002c08:	22c70713          	addi	a4,a4,556 # 80008e30 <reset_yet>
80002c0c:	00072583          	lw	a1,0(a4)
80002c10:	ff010113          	addi	sp,sp,-16
80002c14:	00005617          	auipc	a2,0x5
80002c18:	07460613          	addi	a2,a2,116 # 80007c88 <heap>
80002c1c:	00112623          	sw	ra,12(sp)
80002c20:	00062683          	lw	a3,0(a2)
80002c24:	00050793          	mv	a5,a0
80002c28:	06058263          	beqz	a1,80002c8c <malloc+0x88>
80002c2c:	00006597          	auipc	a1,0x6
80002c30:	20058593          	addi	a1,a1,512 # 80008e2c <hbrk>
80002c34:	0005a503          	lw	a0,0(a1)
80002c38:	00778793          	addi	a5,a5,7
80002c3c:	ff87f793          	andi	a5,a5,-8
80002c40:	00f50733          	add	a4,a0,a5
80002c44:	00e5a023          	sw	a4,0(a1)
80002c48:	06d76063          	bltu	a4,a3,80002ca8 <malloc+0xa4>
80002c4c:	00462603          	lw	a2,4(a2)
80002c50:	04c77c63          	bgeu	a4,a2,80002ca8 <malloc+0xa4>
80002c54:	00f707b3          	add	a5,a4,a5
80002c58:	06d7e863          	bltu	a5,a3,80002cc8 <malloc+0xc4>
80002c5c:	06c7f663          	bgeu	a5,a2,80002cc8 <malloc+0xc4>
80002c60:	00050793          	mv	a5,a0
80002c64:	00a70e63          	beq	a4,a0,80002c80 <malloc+0x7c>
80002c68:	00000613          	li	a2,0
80002c6c:	00000693          	li	a3,0
80002c70:	00c7a023          	sw	a2,0(a5)
80002c74:	00d7a223          	sw	a3,4(a5)
80002c78:	00878793          	addi	a5,a5,8
80002c7c:	fef716e3          	bne	a4,a5,80002c68 <malloc+0x64>
80002c80:	00c12083          	lw	ra,12(sp)
80002c84:	01010113          	addi	sp,sp,16
80002c88:	00008067          	ret
80002c8c:	00100593          	li	a1,1
80002c90:	00768513          	addi	a0,a3,7
80002c94:	00b72023          	sw	a1,0(a4)
80002c98:	ff857513          	andi	a0,a0,-8
80002c9c:	00006597          	auipc	a1,0x6
80002ca0:	19058593          	addi	a1,a1,400 # 80008e2c <hbrk>
80002ca4:	f95ff06f          	j	80002c38 <malloc+0x34>
80002ca8:	03900613          	li	a2,57
80002cac:	00003597          	auipc	a1,0x3
80002cb0:	0dc58593          	addi	a1,a1,220 # 80005d88 <_etext+0x30b4>
80002cb4:	00003517          	auipc	a0,0x3
80002cb8:	11450513          	addi	a0,a0,276 # 80005dc8 <_etext+0x30f4>
80002cbc:	85dff0ef          	jal	80002518 <printf>
80002cc0:	00100513          	li	a0,1
80002cc4:	d68ff0ef          	jal	8000222c <halt>
80002cc8:	03a00613          	li	a2,58
80002ccc:	fe1ff06f          	j	80002cac <malloc+0xa8>

80002cd0 <free>:
80002cd0:	00008067          	ret
