
/home/curry/code/ysyx_curry/am-kernels/tests/cpu-tests/build/hello-str-riscv32-nemu.elf:     file format elf32-littleriscv


Disassembly of section .text:

80000000 <_start>:
80000000:	00000413          	li	s0,0
80000004:	00009117          	auipc	sp,0x9
80000008:	ffc10113          	addi	sp,sp,-4 # 80009000 <_end>
8000000c:	0f0000ef          	jal	800000fc <_trm_init>

80000010 <check>:
80000010:	00050463          	beqz	a0,80000018 <check+0x8>
80000014:	00008067          	ret
80000018:	ff010113          	addi	sp,sp,-16
8000001c:	00100513          	li	a0,1
80000020:	00112623          	sw	ra,12(sp)
80000024:	0cc000ef          	jal	800000f0 <halt>

80000028 <main>:
80000028:	ff010113          	addi	sp,sp,-16
8000002c:	00000617          	auipc	a2,0x0
80000030:	1fc60613          	addi	a2,a2,508 # 80000228 <_etext>
80000034:	00000597          	auipc	a1,0x0
80000038:	20458593          	addi	a1,a1,516 # 80000238 <_etext+0x10>
8000003c:	00000517          	auipc	a0,0x0
80000040:	26c50513          	addi	a0,a0,620 # 800002a8 <buf>
80000044:	00112623          	sw	ra,12(sp)
80000048:	15c000ef          	jal	800001a4 <sprintf>
8000004c:	00000597          	auipc	a1,0x0
80000050:	1dc58593          	addi	a1,a1,476 # 80000228 <_etext>
80000054:	00000517          	auipc	a0,0x0
80000058:	25450513          	addi	a0,a0,596 # 800002a8 <buf>
8000005c:	184000ef          	jal	800001e0 <strcmp>
80000060:	00153513          	seqz	a0,a0
80000064:	fadff0ef          	jal	80000010 <check>
80000068:	00200713          	li	a4,2
8000006c:	00100693          	li	a3,1
80000070:	00100613          	li	a2,1
80000074:	00000597          	auipc	a1,0x0
80000078:	1c858593          	addi	a1,a1,456 # 8000023c <_etext+0x14>
8000007c:	00000517          	auipc	a0,0x0
80000080:	22c50513          	addi	a0,a0,556 # 800002a8 <buf>
80000084:	120000ef          	jal	800001a4 <sprintf>
80000088:	00000597          	auipc	a1,0x0
8000008c:	1c458593          	addi	a1,a1,452 # 8000024c <_etext+0x24>
80000090:	00000517          	auipc	a0,0x0
80000094:	21850513          	addi	a0,a0,536 # 800002a8 <buf>
80000098:	148000ef          	jal	800001e0 <strcmp>
8000009c:	00153513          	seqz	a0,a0
800000a0:	f71ff0ef          	jal	80000010 <check>
800000a4:	00c00713          	li	a4,12
800000a8:	00a00693          	li	a3,10
800000ac:	00200613          	li	a2,2
800000b0:	00000597          	auipc	a1,0x0
800000b4:	18c58593          	addi	a1,a1,396 # 8000023c <_etext+0x14>
800000b8:	00000517          	auipc	a0,0x0
800000bc:	1f050513          	addi	a0,a0,496 # 800002a8 <buf>
800000c0:	0e4000ef          	jal	800001a4 <sprintf>
800000c4:	00000597          	auipc	a1,0x0
800000c8:	19458593          	addi	a1,a1,404 # 80000258 <_etext+0x30>
800000cc:	00000517          	auipc	a0,0x0
800000d0:	1dc50513          	addi	a0,a0,476 # 800002a8 <buf>
800000d4:	10c000ef          	jal	800001e0 <strcmp>
800000d8:	00153513          	seqz	a0,a0
800000dc:	f35ff0ef          	jal	80000010 <check>
800000e0:	00c12083          	lw	ra,12(sp)
800000e4:	00000513          	li	a0,0
800000e8:	01010113          	addi	sp,sp,16
800000ec:	00008067          	ret

800000f0 <halt>:
800000f0:	00050513          	mv	a0,a0
800000f4:	00100073          	ebreak
800000f8:	0000006f          	j	800000f8 <halt+0x8>

800000fc <_trm_init>:
800000fc:	ff010113          	addi	sp,sp,-16
80000100:	00000517          	auipc	a0,0x0
80000104:	16850513          	addi	a0,a0,360 # 80000268 <mainargs>
80000108:	00112623          	sw	ra,12(sp)
8000010c:	f1dff0ef          	jal	80000028 <main>
80000110:	00050513          	mv	a0,a0
80000114:	00100073          	ebreak
80000118:	0000006f          	j	80000118 <_trm_init+0x1c>

8000011c <vsprintf>:
8000011c:	0005c783          	lbu	a5,0(a1)
80000120:	00050693          	mv	a3,a0
80000124:	06078a63          	beqz	a5,80000198 <vsprintf+0x7c>
80000128:	02500813          	li	a6,37
8000012c:	07300893          	li	a7,115
80000130:	01c0006f          	j	8000014c <vsprintf+0x30>
80000134:	00f68023          	sb	a5,0(a3)
80000138:	00058713          	mv	a4,a1
8000013c:	00168693          	addi	a3,a3,1
80000140:	00174783          	lbu	a5,1(a4)
80000144:	00170593          	addi	a1,a4,1
80000148:	04078263          	beqz	a5,8000018c <vsprintf+0x70>
8000014c:	00158713          	addi	a4,a1,1
80000150:	ff0792e3          	bne	a5,a6,80000134 <vsprintf+0x18>
80000154:	0015c783          	lbu	a5,1(a1)
80000158:	ff1794e3          	bne	a5,a7,80000140 <vsprintf+0x24>
8000015c:	00062583          	lw	a1,0(a2)
80000160:	00460613          	addi	a2,a2,4
80000164:	0005c783          	lbu	a5,0(a1)
80000168:	fc078ce3          	beqz	a5,80000140 <vsprintf+0x24>
8000016c:	00f68023          	sb	a5,0(a3)
80000170:	0015c783          	lbu	a5,1(a1)
80000174:	00158593          	addi	a1,a1,1
80000178:	00168693          	addi	a3,a3,1
8000017c:	fe0798e3          	bnez	a5,8000016c <vsprintf+0x50>
80000180:	00174783          	lbu	a5,1(a4)
80000184:	00170593          	addi	a1,a4,1
80000188:	fc0792e3          	bnez	a5,8000014c <vsprintf+0x30>
8000018c:	40a68533          	sub	a0,a3,a0
80000190:	00068023          	sb	zero,0(a3)
80000194:	00008067          	ret
80000198:	00000513          	li	a0,0
8000019c:	00068023          	sb	zero,0(a3)
800001a0:	00008067          	ret

800001a4 <sprintf>:
800001a4:	fc010113          	addi	sp,sp,-64
800001a8:	02810313          	addi	t1,sp,40
800001ac:	02c12423          	sw	a2,40(sp)
800001b0:	00030613          	mv	a2,t1
800001b4:	00112e23          	sw	ra,28(sp)
800001b8:	02d12623          	sw	a3,44(sp)
800001bc:	02e12823          	sw	a4,48(sp)
800001c0:	02f12a23          	sw	a5,52(sp)
800001c4:	03012c23          	sw	a6,56(sp)
800001c8:	03112e23          	sw	a7,60(sp)
800001cc:	00612623          	sw	t1,12(sp)
800001d0:	f4dff0ef          	jal	8000011c <vsprintf>
800001d4:	01c12083          	lw	ra,28(sp)
800001d8:	04010113          	addi	sp,sp,64
800001dc:	00008067          	ret

800001e0 <strcmp>:
800001e0:	00054703          	lbu	a4,0(a0)
800001e4:	00071c63          	bnez	a4,800001fc <strcmp+0x1c>
800001e8:	0380006f          	j	80000220 <strcmp+0x40>
800001ec:	02e79063          	bne	a5,a4,8000020c <strcmp+0x2c>
800001f0:	00054703          	lbu	a4,0(a0)
800001f4:	02070063          	beqz	a4,80000214 <strcmp+0x34>
800001f8:	00068593          	mv	a1,a3
800001fc:	0005c783          	lbu	a5,0(a1)
80000200:	00150513          	addi	a0,a0,1
80000204:	00158693          	addi	a3,a1,1
80000208:	fe0792e3          	bnez	a5,800001ec <strcmp+0xc>
8000020c:	40f70533          	sub	a0,a4,a5
80000210:	00008067          	ret
80000214:	0015c783          	lbu	a5,1(a1)
80000218:	40f70533          	sub	a0,a4,a5
8000021c:	00008067          	ret
80000220:	0005c783          	lbu	a5,0(a1)
80000224:	fe9ff06f          	j	8000020c <strcmp+0x2c>
