[1;34m[src/utils/log.c:30 init_log] Log is written to /home/curry/code/ysyx_curry/am-kernels/tests/cpu-tests/build/nemu-log.txt[0m
[1;34m[src/memory/paddr.c:50 init_mem] physical memory area [0x80000000, 0x87ffffff][0m
[1;34m[src/monitor/monitor.c:61 load_img] The image is /home/curry/code/ysyx_curry/am-kernels/tests/cpu-tests/build/movsx-riscv32e-nemu.bin, size = 592[0m
[1;34m[src/monitor/monitor.c:28 welcome] Trace: [1;32mON[0m[0m
[1;34m[src/monitor/monitor.c:29 welcome] If trace is enabled, a log file will be generated to record the trace. This may lead to a large log file. If it is not necessary, you can disable it in menuconfig[0m
[1;34m[src/monitor/monitor.c:32 welcome] Build time: 10:56:35, Dec 11 2024[0m
0x80000000: 00 00 04 13 mv	s0, zero
0x80000004: 00 00 91 17 auipc	sp, 9
0x80000008: ff c1 01 13 addi	sp, sp, -4
0x8000000c: 1a c0 00 ef jal	0x1ac
0x800001b8: ff 41 01 13 addi	sp, sp, -0xc
0x800001bc: 00 00 05 17 auipc	a0, 0
0x800001c0: 01 c5 05 13 addi	a0, a0, 0x1c
0x800001c4: 00 11 24 23 sw	ra, 8(sp)
0x800001c8: e6 1f f0 ef jal	-0x1a0
0x80000028: ff 41 01 13 addi	sp, sp, -0xc
0x8000002c: 00 11 24 23 sw	ra, 8(sp)
0x80000030: 00 81 22 23 sw	s0, 4(sp)
0x80000034: 00 91 20 23 sw	s1, 0(sp)
0x80000038: 00 00 04 17 auipc	s0, 0
0x8000003c: 1e c4 04 13 addi	s0, s0, 0x1ec
0x80000040: 00 04 20 23 sw	zero, 0(s0)
0x80000044: 00 10 07 93 addi	a5, zero, 1
0x80000048: 00 f4 22 23 sw	a5, 4(s0)
0x8000004c: 00 20 07 93 addi	a5, zero, 2
0x80000050: 00 f4 24 23 sw	a5, 8(s0)
0x80000054: 00 30 07 93 addi	a5, zero, 3
0x80000058: 00 f4 26 23 sw	a5, 0xc(s0)
0x8000005c: 00 40 07 93 addi	a5, zero, 4
0x80000060: 00 f4 28 23 sw	a5, 0x10(s0)
0x80000064: 00 c4 27 03 lw	a4, 0xc(s0)
0x80000068: 00 00 07 97 auipc	a5, 0
0x8000006c: 1e 47 87 93 addi	a5, a5, 0x1e4
0x80000070: 00 00 04 97 auipc	s1, 0
0x80000074: 1a 84 84 93 addi	s1, s1, 0x1a8
0x80000078: 00 e7 a0 23 sw	a4, 0(a5)
0x8000007c: 00 07 a7 03 lw	a4, 0(a5)
0x80000080: 00 e4 2a 23 sw	a4, 0x14(s0)
0x80000084: 06 10 07 13 addi	a4, zero, 0x61
0x80000088: 00 e4 80 23 sb	a4, 0(s1)
0x8000008c: 00 04 c5 03 lbu	a0, 0(s1)
0x80000090: 01 85 15 13 slli	a0, a0, 0x18
0x80000094: 41 85 55 13 srai	a0, a0, 0x18
0x80000098: f9 f5 05 13 addi	a0, a0, -0x61
0x8000009c: 00 15 35 13 seqz	a0, a0
0x800000a0: f7 1f f0 ef jal	-0x90
0x80000010: 00 05 04 63 beqz	a0, 8
0x80000014: 00 00 80 67 ret
0x800000a4: 00 04 c7 03 lbu	a4, 0(s1)
0x800000a8: 01 87 17 13 slli	a4, a4, 0x18
0x800000ac: 41 87 57 13 srai	a4, a4, 0x18
0x800000b0: 00 e4 80 a3 sb	a4, 1(s1)
0x800000b4: 00 14 c5 03 lbu	a0, 1(s1)
0x800000b8: 01 85 15 13 slli	a0, a0, 0x18
0x800000bc: 41 85 55 13 srai	a0, a0, 0x18
0x800000c0: f9 f5 05 13 addi	a0, a0, -0x61
0x800000c4: 00 15 35 13 seqz	a0, a0
0x800000c8: f4 9f f0 ef jal	-0xb8
0x80000010: 00 05 04 63 beqz	a0, 8
0x80000014: 00 00 80 67 ret
0x800000cc: 00 04 c7 03 lbu	a4, 0(s1)
0x800000d0: 01 87 17 13 slli	a4, a4, 0x18
0x800000d4: 41 87 57 13 srai	a4, a4, 0x18
0x800000d8: 00 e4 20 23 sw	a4, 0(s0)
0x800000dc: 00 04 25 03 lw	a0, 0(s0)
0x800000e0: f9 f5 05 13 addi	a0, a0, -0x61
0x800000e4: 00 15 35 13 seqz	a0, a0
0x800000e8: f2 9f f0 ef jal	-0xd8
0x80000010: 00 05 04 63 beqz	a0, 8
0x80000014: 00 00 80 67 ret
0x800000ec: f8 00 07 13 addi	a4, zero, -0x80
0x800000f0: 00 e4 80 a3 sb	a4, 1(s1)
0x800000f4: 00 14 c7 03 lbu	a4, 1(s1)
0x800000f8: 01 87 17 13 slli	a4, a4, 0x18
0x800000fc: 41 87 57 13 srai	a4, a4, 0x18
0x80000100: 00 e4 20 23 sw	a4, 0(s0)
0x80000104: 00 44 25 03 lw	a0, 4(s0)
0x80000108: ff f5 05 13 addi	a0, a0, -1
0x8000010c: 00 15 35 13 seqz	a0, a0
0x80000110: f0 1f f0 ef jal	-0x100
0x80000010: 00 05 04 63 beqz	a0, 8
0x80000014: 00 00 80 67 ret
0x80000114: 00 84 25 03 lw	a0, 8(s0)
0x80000118: ff e5 05 13 addi	a0, a0, -2
0x8000011c: 00 15 35 13 seqz	a0, a0
0x80000120: ef 1f f0 ef jal	-0x110
0x80000010: 00 05 04 63 beqz	a0, 8
0x80000014: 00 00 80 67 ret
0x80000124: 00 c4 25 03 lw	a0, 0xc(s0)
0x80000128: ff d5 05 13 addi	a0, a0, -3
0x8000012c: 00 15 35 13 seqz	a0, a0
0x80000130: ee 1f f0 ef jal	-0x120
0x80000010: 00 05 04 63 beqz	a0, 8
0x80000014: 00 00 80 67 ret
0x80000134: 01 04 25 03 lw	a0, 0x10(s0)
0x80000138: ff c5 05 13 addi	a0, a0, -4
0x8000013c: 00 15 35 13 seqz	a0, a0
0x80000140: ed 1f f0 ef jal	-0x130
0x80000010: 00 05 04 63 beqz	a0, 8
0x80000014: 00 00 80 67 ret
0x80000144: 00 00 07 97 auipc	a5, 0
0x80000148: 10 87 87 93 addi	a5, a5, 0x108
0x8000014c: 00 07 a5 03 lw	a0, 0(a5)
0x80000150: ff d5 05 13 addi	a0, a0, -3
0x80000154: 00 15 35 13 seqz	a0, a0
0x80000158: eb 9f f0 ef jal	-0x148
0x80000010: 00 05 04 63 beqz	a0, 8
0x80000014: 00 00 80 67 ret
0x8000015c: 01 44 25 03 lw	a0, 0x14(s0)
0x80000160: ff d5 05 13 addi	a0, a0, -3
0x80000164: 00 15 35 13 seqz	a0, a0
0x80000168: ea 9f f0 ef jal	-0x158
0x80000010: 00 05 04 63 beqz	a0, 8
0x80000014: 00 00 80 67 ret
0x8000016c: 00 14 c5 03 lbu	a0, 1(s1)
0x80000170: 01 85 15 13 slli	a0, a0, 0x18
0x80000174: 41 85 55 13 srai	a0, a0, 0x18
0x80000178: 08 05 05 13 addi	a0, a0, 0x80
0x8000017c: 00 15 35 13 seqz	a0, a0
0x80000180: e9 1f f0 ef jal	-0x170
0x80000010: 00 05 04 63 beqz	a0, 8
0x80000018: ff 41 01 13 addi	sp, sp, -0xc
0x8000001c: 00 10 05 13 addi	a0, zero, 1
0x80000020: 00 11 24 23 sw	ra, 8(sp)
0x80000024: 18 80 00 ef jal	0x188
0x800001ac: 00 05 05 13 mv	a0, a0
0x800001b0: 00 10 00 73 ebreak
[1;34m[src/cpu/cpu-exec.c:143 cpu_exec] nemu: [1;31mHIT BAD TRAP[0m at pc = 0x800001b0[0m
[1;34m[src/cpu/cpu-exec.c:111 statistic] host time spent = 537 us[0m
[1;34m[src/cpu/cpu-exec.c:112 statistic] total guest instructions = 121[0m
[1;34m[src/cpu/cpu-exec.c:113 statistic] simulation frequency = 225,325 inst/s[0m
