
/home/curry/code/ysyx_curry/am-kernels/tests/cpu-tests/build/string-riscv32-nemu.elf:     file format elf32-littleriscv


Disassembly of section .text:

80000000 <_start>:
80000000:	00000413          	li	s0,0
80000004:	00009117          	auipc	sp,0x9
80000008:	ffc10113          	addi	sp,sp,-4 # 80009000 <_end>
8000000c:	12c000ef          	jal	80000138 <_trm_init>

80000010 <check>:
80000010:	00050463          	beqz	a0,80000018 <check+0x8>
80000014:	00008067          	ret
80000018:	ff010113          	addi	sp,sp,-16
8000001c:	00100513          	li	a0,1
80000020:	00112623          	sw	ra,12(sp)
80000024:	108000ef          	jal	8000012c <halt>

80000028 <main>:
80000028:	ff010113          	addi	sp,sp,-16
8000002c:	00812423          	sw	s0,8(sp)
80000030:	00001417          	auipc	s0,0x1
80000034:	c7c40413          	addi	s0,s0,-900 # 80000cac <s>
80000038:	00842583          	lw	a1,8(s0)
8000003c:	00042503          	lw	a0,0(s0)
80000040:	00112623          	sw	ra,12(sp)
80000044:	208000ef          	jal	8000024c <strcmp>
80000048:	00153513          	seqz	a0,a0
8000004c:	fc5ff0ef          	jal	80000010 <check>
80000050:	00442583          	lw	a1,4(s0)
80000054:	00042503          	lw	a0,0(s0)
80000058:	1f4000ef          	jal	8000024c <strcmp>
8000005c:	01f55513          	srli	a0,a0,0x1f
80000060:	fb1ff0ef          	jal	80000010 <check>
80000064:	00442583          	lw	a1,4(s0)
80000068:	00042503          	lw	a0,0(s0)
8000006c:	00158593          	addi	a1,a1,1
80000070:	00150513          	addi	a0,a0,1
80000074:	1d8000ef          	jal	8000024c <strcmp>
80000078:	01f55513          	srli	a0,a0,0x1f
8000007c:	f95ff0ef          	jal	80000010 <check>
80000080:	00442583          	lw	a1,4(s0)
80000084:	00042503          	lw	a0,0(s0)
80000088:	00258593          	addi	a1,a1,2
8000008c:	00250513          	addi	a0,a0,2
80000090:	1bc000ef          	jal	8000024c <strcmp>
80000094:	01f55513          	srli	a0,a0,0x1f
80000098:	f79ff0ef          	jal	80000010 <check>
8000009c:	00442583          	lw	a1,4(s0)
800000a0:	00042503          	lw	a0,0(s0)
800000a4:	00358593          	addi	a1,a1,3
800000a8:	00350513          	addi	a0,a0,3
800000ac:	1a0000ef          	jal	8000024c <strcmp>
800000b0:	01f55513          	srli	a0,a0,0x1f
800000b4:	f5dff0ef          	jal	80000010 <check>
800000b8:	00001597          	auipc	a1,0x1
800000bc:	bec58593          	addi	a1,a1,-1044 # 80000ca4 <str1>
800000c0:	00001517          	auipc	a0,0x1
800000c4:	c0450513          	addi	a0,a0,-1020 # 80000cc4 <str>
800000c8:	0ec000ef          	jal	800001b4 <strcpy>
800000cc:	00c42583          	lw	a1,12(s0)
800000d0:	120000ef          	jal	800001f0 <strcat>
800000d4:	01042583          	lw	a1,16(s0)
800000d8:	174000ef          	jal	8000024c <strcmp>
800000dc:	00153513          	seqz	a0,a0
800000e0:	f31ff0ef          	jal	80000010 <check>
800000e4:	00500613          	li	a2,5
800000e8:	02300593          	li	a1,35
800000ec:	00001517          	auipc	a0,0x1
800000f0:	bd850513          	addi	a0,a0,-1064 # 80000cc4 <str>
800000f4:	1a0000ef          	jal	80000294 <memset>
800000f8:	01442583          	lw	a1,20(s0)
800000fc:	00500613          	li	a2,5
80000100:	1b4000ef          	jal	800002b4 <memcmp>
80000104:	00153513          	seqz	a0,a0
80000108:	f09ff0ef          	jal	80000010 <check>
8000010c:	00c12083          	lw	ra,12(sp)
80000110:	00812403          	lw	s0,8(sp)
80000114:	00000513          	li	a0,0
80000118:	01010113          	addi	sp,sp,16
8000011c:	00008067          	ret

80000120 <putch>:
80000120:	a00007b7          	lui	a5,0xa0000
80000124:	3ea78c23          	sb	a0,1016(a5) # a00003f8 <_end+0x1fff73f8>
80000128:	00008067          	ret

8000012c <halt>:
8000012c:	00050513          	mv	a0,a0
80000130:	00100073          	ebreak
80000134:	0000006f          	j	80000134 <halt+0x8>

80000138 <_trm_init>:
80000138:	ff010113          	addi	sp,sp,-16
8000013c:	00001517          	auipc	a0,0x1
80000140:	ad050513          	addi	a0,a0,-1328 # 80000c0c <mainargs>
80000144:	00112623          	sw	ra,12(sp)
80000148:	ee1ff0ef          	jal	80000028 <main>
8000014c:	00050513          	mv	a0,a0
80000150:	00100073          	ebreak
80000154:	0000006f          	j	80000154 <_trm_init+0x1c>

80000158 <strcpy.part.0>:
80000158:	ff010113          	addi	sp,sp,-16
8000015c:	01300613          	li	a2,19
80000160:	00001597          	auipc	a1,0x1
80000164:	8b858593          	addi	a1,a1,-1864 # 80000a18 <_etext+0x78>
80000168:	00001517          	auipc	a0,0x1
8000016c:	8f050513          	addi	a0,a0,-1808 # 80000a58 <_etext+0xb8>
80000170:	00112623          	sw	ra,12(sp)
80000174:	174000ef          	jal	800002e8 <printf>
80000178:	00100513          	li	a0,1
8000017c:	fb1ff0ef          	jal	8000012c <halt>

80000180 <strlen>:
80000180:	00050713          	mv	a4,a0
80000184:	02050263          	beqz	a0,800001a8 <strlen+0x28>
80000188:	00054783          	lbu	a5,0(a0)
8000018c:	00000513          	li	a0,0
80000190:	02078063          	beqz	a5,800001b0 <strlen+0x30>
80000194:	00150513          	addi	a0,a0,1
80000198:	00a707b3          	add	a5,a4,a0
8000019c:	0007c783          	lbu	a5,0(a5)
800001a0:	fe079ae3          	bnez	a5,80000194 <strlen+0x14>
800001a4:	00008067          	ret
800001a8:	00000513          	li	a0,0
800001ac:	00008067          	ret
800001b0:	00008067          	ret

800001b4 <strcpy>:
800001b4:	02050863          	beqz	a0,800001e4 <strcpy+0x30>
800001b8:	02058663          	beqz	a1,800001e4 <strcpy+0x30>
800001bc:	0005c703          	lbu	a4,0(a1)
800001c0:	00050793          	mv	a5,a0
800001c4:	00070c63          	beqz	a4,800001dc <strcpy+0x28>
800001c8:	00e78023          	sb	a4,0(a5)
800001cc:	0015c703          	lbu	a4,1(a1)
800001d0:	00158593          	addi	a1,a1,1
800001d4:	00178793          	addi	a5,a5,1
800001d8:	fe0718e3          	bnez	a4,800001c8 <strcpy+0x14>
800001dc:	00078023          	sb	zero,0(a5)
800001e0:	00008067          	ret
800001e4:	ff010113          	addi	sp,sp,-16
800001e8:	00112623          	sw	ra,12(sp)
800001ec:	f6dff0ef          	jal	80000158 <strcpy.part.0>

800001f0 <strcat>:
800001f0:	04050863          	beqz	a0,80000240 <strcat+0x50>
800001f4:	00054783          	lbu	a5,0(a0)
800001f8:	04078063          	beqz	a5,80000238 <strcat+0x48>
800001fc:	00150713          	addi	a4,a0,1
80000200:	00074683          	lbu	a3,0(a4)
80000204:	00070793          	mv	a5,a4
80000208:	00170713          	addi	a4,a4,1
8000020c:	fe069ae3          	bnez	a3,80000200 <strcat+0x10>
80000210:	02058863          	beqz	a1,80000240 <strcat+0x50>
80000214:	0005c703          	lbu	a4,0(a1)
80000218:	00070c63          	beqz	a4,80000230 <strcat+0x40>
8000021c:	00e78023          	sb	a4,0(a5)
80000220:	0015c703          	lbu	a4,1(a1)
80000224:	00158593          	addi	a1,a1,1
80000228:	00178793          	addi	a5,a5,1
8000022c:	fe0718e3          	bnez	a4,8000021c <strcat+0x2c>
80000230:	00078023          	sb	zero,0(a5)
80000234:	00008067          	ret
80000238:	00050793          	mv	a5,a0
8000023c:	fd5ff06f          	j	80000210 <strcat+0x20>
80000240:	ff010113          	addi	sp,sp,-16
80000244:	00112623          	sw	ra,12(sp)
80000248:	f11ff0ef          	jal	80000158 <strcpy.part.0>

8000024c <strcmp>:
8000024c:	00054703          	lbu	a4,0(a0)
80000250:	00071c63          	bnez	a4,80000268 <strcmp+0x1c>
80000254:	0380006f          	j	8000028c <strcmp+0x40>
80000258:	02e79063          	bne	a5,a4,80000278 <strcmp+0x2c>
8000025c:	00054703          	lbu	a4,0(a0)
80000260:	02070063          	beqz	a4,80000280 <strcmp+0x34>
80000264:	00068593          	mv	a1,a3
80000268:	0005c783          	lbu	a5,0(a1)
8000026c:	00150513          	addi	a0,a0,1
80000270:	00158693          	addi	a3,a1,1
80000274:	fe0792e3          	bnez	a5,80000258 <strcmp+0xc>
80000278:	40f70533          	sub	a0,a4,a5
8000027c:	00008067          	ret
80000280:	0015c783          	lbu	a5,1(a1)
80000284:	40f70533          	sub	a0,a4,a5
80000288:	00008067          	ret
8000028c:	0005c783          	lbu	a5,0(a1)
80000290:	fe9ff06f          	j	80000278 <strcmp+0x2c>

80000294 <memset>:
80000294:	0ff5f593          	zext.b	a1,a1
80000298:	00c50733          	add	a4,a0,a2
8000029c:	00050793          	mv	a5,a0
800002a0:	00060863          	beqz	a2,800002b0 <memset+0x1c>
800002a4:	00178793          	addi	a5,a5,1
800002a8:	feb78fa3          	sb	a1,-1(a5)
800002ac:	fef71ce3          	bne	a4,a5,800002a4 <memset+0x10>
800002b0:	00008067          	ret

800002b4 <memcmp>:
800002b4:	02060663          	beqz	a2,800002e0 <memcmp+0x2c>
800002b8:	00c50633          	add	a2,a0,a2
800002bc:	0080006f          	j	800002c4 <memcmp+0x10>
800002c0:	02c50063          	beq	a0,a2,800002e0 <memcmp+0x2c>
800002c4:	00054783          	lbu	a5,0(a0)
800002c8:	0005c703          	lbu	a4,0(a1)
800002cc:	00150513          	addi	a0,a0,1
800002d0:	00158593          	addi	a1,a1,1
800002d4:	fee786e3          	beq	a5,a4,800002c0 <memcmp+0xc>
800002d8:	40e78533          	sub	a0,a5,a4
800002dc:	00008067          	ret
800002e0:	00000513          	li	a0,0
800002e4:	00008067          	ret

800002e8 <printf>:
800002e8:	e9010113          	addi	sp,sp,-368
800002ec:	13312e23          	sw	s3,316(sp)
800002f0:	01010993          	addi	s3,sp,16
800002f4:	14812423          	sw	s0,328(sp)
800002f8:	16e12023          	sw	a4,352(sp)
800002fc:	16f12223          	sw	a5,356(sp)
80000300:	14112623          	sw	ra,332(sp)
80000304:	14912223          	sw	s1,324(sp)
80000308:	00050413          	mv	s0,a0
8000030c:	14b12a23          	sw	a1,340(sp)
80000310:	14c12c23          	sw	a2,344(sp)
80000314:	14d12e23          	sw	a3,348(sp)
80000318:	17012423          	sw	a6,360(sp)
8000031c:	17112623          	sw	a7,364(sp)
80000320:	00098793          	mv	a5,s3
80000324:	11010713          	addi	a4,sp,272
80000328:	0007a023          	sw	zero,0(a5)
8000032c:	00478793          	addi	a5,a5,4
80000330:	fef71ce3          	bne	a4,a5,80000328 <printf+0x40>
80000334:	00044783          	lbu	a5,0(s0)
80000338:	15410713          	addi	a4,sp,340
8000033c:	00e12623          	sw	a4,12(sp)
80000340:	36078863          	beqz	a5,800006b0 <printf+0x3c8>
80000344:	13412c23          	sw	s4,312(sp)
80000348:	13512a23          	sw	s5,308(sp)
8000034c:	13612823          	sw	s6,304(sp)
80000350:	13712623          	sw	s7,300(sp)
80000354:	13812423          	sw	s8,296(sp)
80000358:	13912223          	sw	s9,292(sp)
8000035c:	15212023          	sw	s2,320(sp)
80000360:	13a12023          	sw	s10,288(sp)
80000364:	11b12e23          	sw	s11,284(sp)
80000368:	00098493          	mv	s1,s3
8000036c:	02500c93          	li	s9,37
80000370:	07800a13          	li	s4,120
80000374:	06200a93          	li	s5,98
80000378:	06400c13          	li	s8,100
8000037c:	01500b93          	li	s7,21
80000380:	00001b17          	auipc	s6,0x1
80000384:	8ccb0b13          	addi	s6,s6,-1844 # 80000c4c <mainargs+0x40>
80000388:	01c0006f          	j	800003a4 <printf+0xbc>
8000038c:	00f48023          	sb	a5,0(s1)
80000390:	00040913          	mv	s2,s0
80000394:	00148493          	addi	s1,s1,1
80000398:	00194783          	lbu	a5,1(s2)
8000039c:	00190413          	addi	s0,s2,1
800003a0:	08078e63          	beqz	a5,8000043c <printf+0x154>
800003a4:	00144703          	lbu	a4,1(s0)
800003a8:	00140913          	addi	s2,s0,1
800003ac:	ff9790e3          	bne	a5,s9,8000038c <printf+0xa4>
800003b0:	38ea6463          	bltu	s4,a4,80000738 <printf+0x450>
800003b4:	16eaf863          	bgeu	s5,a4,80000524 <printf+0x23c>
800003b8:	f9d70793          	addi	a5,a4,-99
800003bc:	0ff7f793          	zext.b	a5,a5
800003c0:	00fbec63          	bltu	s7,a5,800003d8 <printf+0xf0>
800003c4:	00279793          	slli	a5,a5,0x2
800003c8:	016787b3          	add	a5,a5,s6
800003cc:	0007a783          	lw	a5,0(a5)
800003d0:	016787b3          	add	a5,a5,s6
800003d4:	00078067          	jr	a5
800003d8:	fd070d13          	addi	s10,a4,-48
800003dc:	0ffd7713          	zext.b	a4,s10
800003e0:	00900793          	li	a5,9
800003e4:	34e7ea63          	bltu	a5,a4,80000738 <printf+0x450>
800003e8:	00c12783          	lw	a5,12(sp)
800003ec:	00244703          	lbu	a4,2(s0)
800003f0:	00240913          	addi	s2,s0,2
800003f4:	00478613          	addi	a2,a5,4
800003f8:	00c12623          	sw	a2,12(sp)
800003fc:	0007ad83          	lw	s11,0(a5)
80000400:	1d470c63          	beq	a4,s4,800005d8 <printf+0x2f0>
80000404:	2b871c63          	bne	a4,s8,800006bc <printf+0x3d4>
80000408:	00a00613          	li	a2,10
8000040c:	00048593          	mv	a1,s1
80000410:	000d8513          	mv	a0,s11
80000414:	48c000ef          	jal	800008a0 <itoa>
80000418:	21a54e63          	blt	a0,s10,80000634 <printf+0x34c>
8000041c:	00048593          	mv	a1,s1
80000420:	00a00613          	li	a2,10
80000424:	000d8513          	mv	a0,s11
80000428:	478000ef          	jal	800008a0 <itoa>
8000042c:	00194783          	lbu	a5,1(s2)
80000430:	00a484b3          	add	s1,s1,a0
80000434:	00190413          	addi	s0,s2,1
80000438:	f60796e3          	bnez	a5,800003a4 <printf+0xbc>
8000043c:	14012903          	lw	s2,320(sp)
80000440:	13812a03          	lw	s4,312(sp)
80000444:	13412a83          	lw	s5,308(sp)
80000448:	13012b03          	lw	s6,304(sp)
8000044c:	12c12b83          	lw	s7,300(sp)
80000450:	12812c03          	lw	s8,296(sp)
80000454:	12412c83          	lw	s9,292(sp)
80000458:	12012d03          	lw	s10,288(sp)
8000045c:	11c12d83          	lw	s11,284(sp)
80000460:	41348433          	sub	s0,s1,s3
80000464:	00048023          	sb	zero,0(s1)
80000468:	01014503          	lbu	a0,16(sp)
8000046c:	00050a63          	beqz	a0,80000480 <printf+0x198>
80000470:	cb1ff0ef          	jal	80000120 <putch>
80000474:	0019c503          	lbu	a0,1(s3)
80000478:	00198993          	addi	s3,s3,1
8000047c:	fe051ae3          	bnez	a0,80000470 <printf+0x188>
80000480:	14c12083          	lw	ra,332(sp)
80000484:	00040513          	mv	a0,s0
80000488:	14812403          	lw	s0,328(sp)
8000048c:	14412483          	lw	s1,324(sp)
80000490:	13c12983          	lw	s3,316(sp)
80000494:	17010113          	addi	sp,sp,368
80000498:	00008067          	ret
8000049c:	00244783          	lbu	a5,2(s0)
800004a0:	00240913          	addi	s2,s0,2
800004a4:	03878863          	beq	a5,s8,800004d4 <printf+0x1ec>
800004a8:	07800713          	li	a4,120
800004ac:	36e79e63          	bne	a5,a4,80000828 <printf+0x540>
800004b0:	00c12783          	lw	a5,12(sp)
800004b4:	01000613          	li	a2,16
800004b8:	0007a503          	lw	a0,0(a5)
800004bc:	00048593          	mv	a1,s1
800004c0:	00478793          	addi	a5,a5,4
800004c4:	00f12623          	sw	a5,12(sp)
800004c8:	3d8000ef          	jal	800008a0 <itoa>
800004cc:	00a484b3          	add	s1,s1,a0
800004d0:	ec9ff06f          	j	80000398 <printf+0xb0>
800004d4:	00c12783          	lw	a5,12(sp)
800004d8:	00a00613          	li	a2,10
800004dc:	fddff06f          	j	800004b8 <printf+0x1d0>
800004e0:	00c12783          	lw	a5,12(sp)
800004e4:	00148493          	addi	s1,s1,1
800004e8:	0007a703          	lw	a4,0(a5)
800004ec:	00478793          	addi	a5,a5,4
800004f0:	00f12623          	sw	a5,12(sp)
800004f4:	fee48fa3          	sb	a4,-1(s1)
800004f8:	ea1ff06f          	j	80000398 <printf+0xb0>
800004fc:	00c12783          	lw	a5,12(sp)
80000500:	00048513          	mv	a0,s1
80000504:	0007a583          	lw	a1,0(a5)
80000508:	00478793          	addi	a5,a5,4
8000050c:	00f12623          	sw	a5,12(sp)
80000510:	ca5ff0ef          	jal	800001b4 <strcpy>
80000514:	00048513          	mv	a0,s1
80000518:	c69ff0ef          	jal	80000180 <strlen>
8000051c:	00a484b3          	add	s1,s1,a0
80000520:	e79ff06f          	j	80000398 <printf+0xb0>
80000524:	06f70e63          	beq	a4,a5,800005a0 <printf+0x2b8>
80000528:	03000793          	li	a5,48
8000052c:	eaf716e3          	bne	a4,a5,800003d8 <printf+0xf0>
80000530:	00c12783          	lw	a5,12(sp)
80000534:	00244d03          	lbu	s10,2(s0)
80000538:	00344703          	lbu	a4,3(s0)
8000053c:	00478613          	addi	a2,a5,4
80000540:	00c12623          	sw	a2,12(sp)
80000544:	0007ad83          	lw	s11,0(a5)
80000548:	fd0d0d13          	addi	s10,s10,-48
8000054c:	00340913          	addi	s2,s0,3
80000550:	05470e63          	beq	a4,s4,800005ac <printf+0x2c4>
80000554:	25871e63          	bne	a4,s8,800007b0 <printf+0x4c8>
80000558:	00a00613          	li	a2,10
8000055c:	00048593          	mv	a1,s1
80000560:	000d8513          	mv	a0,s11
80000564:	33c000ef          	jal	800008a0 <itoa>
80000568:	eba55ae3          	bge	a0,s10,8000041c <printf+0x134>
8000056c:	00000413          	li	s0,0
80000570:	0140006f          	j	80000584 <printf+0x29c>
80000574:	03000793          	li	a5,48
80000578:	00f48023          	sb	a5,0(s1)
8000057c:	00140413          	addi	s0,s0,1
80000580:	00148493          	addi	s1,s1,1
80000584:	00a00613          	li	a2,10
80000588:	00048593          	mv	a1,s1
8000058c:	000d8513          	mv	a0,s11
80000590:	310000ef          	jal	800008a0 <itoa>
80000594:	40ad0533          	sub	a0,s10,a0
80000598:	fca44ee3          	blt	s0,a0,80000574 <printf+0x28c>
8000059c:	e81ff06f          	j	8000041c <printf+0x134>
800005a0:	01948023          	sb	s9,0(s1)
800005a4:	00148493          	addi	s1,s1,1
800005a8:	df1ff06f          	j	80000398 <printf+0xb0>
800005ac:	01000613          	li	a2,16
800005b0:	00048593          	mv	a1,s1
800005b4:	000d8513          	mv	a0,s11
800005b8:	2e8000ef          	jal	800008a0 <itoa>
800005bc:	0ba54663          	blt	a0,s10,80000668 <printf+0x380>
800005c0:	00048593          	mv	a1,s1
800005c4:	01000613          	li	a2,16
800005c8:	000d8513          	mv	a0,s11
800005cc:	2d4000ef          	jal	800008a0 <itoa>
800005d0:	00a484b3          	add	s1,s1,a0
800005d4:	dc5ff06f          	j	80000398 <printf+0xb0>
800005d8:	01000613          	li	a2,16
800005dc:	00048593          	mv	a1,s1
800005e0:	000d8513          	mv	a0,s11
800005e4:	2bc000ef          	jal	800008a0 <itoa>
800005e8:	fda55ce3          	bge	a0,s10,800005c0 <printf+0x2d8>
800005ec:	00000413          	li	s0,0
800005f0:	0140006f          	j	80000604 <printf+0x31c>
800005f4:	02000793          	li	a5,32
800005f8:	00f48023          	sb	a5,0(s1)
800005fc:	00140413          	addi	s0,s0,1
80000600:	00148493          	addi	s1,s1,1
80000604:	01000613          	li	a2,16
80000608:	00048593          	mv	a1,s1
8000060c:	000d8513          	mv	a0,s11
80000610:	290000ef          	jal	800008a0 <itoa>
80000614:	40ad07b3          	sub	a5,s10,a0
80000618:	fcf44ee3          	blt	s0,a5,800005f4 <printf+0x30c>
8000061c:	00048593          	mv	a1,s1
80000620:	01000613          	li	a2,16
80000624:	000d8513          	mv	a0,s11
80000628:	278000ef          	jal	800008a0 <itoa>
8000062c:	00a484b3          	add	s1,s1,a0
80000630:	d69ff06f          	j	80000398 <printf+0xb0>
80000634:	00000413          	li	s0,0
80000638:	0140006f          	j	8000064c <printf+0x364>
8000063c:	02000793          	li	a5,32
80000640:	00f48023          	sb	a5,0(s1)
80000644:	00140413          	addi	s0,s0,1
80000648:	00148493          	addi	s1,s1,1
8000064c:	00a00613          	li	a2,10
80000650:	00048593          	mv	a1,s1
80000654:	000d8513          	mv	a0,s11
80000658:	248000ef          	jal	800008a0 <itoa>
8000065c:	40ad0533          	sub	a0,s10,a0
80000660:	fca44ee3          	blt	s0,a0,8000063c <printf+0x354>
80000664:	db9ff06f          	j	8000041c <printf+0x134>
80000668:	00000413          	li	s0,0
8000066c:	0140006f          	j	80000680 <printf+0x398>
80000670:	03000793          	li	a5,48
80000674:	00f48023          	sb	a5,0(s1)
80000678:	00140413          	addi	s0,s0,1
8000067c:	00148493          	addi	s1,s1,1
80000680:	01000613          	li	a2,16
80000684:	00048593          	mv	a1,s1
80000688:	000d8513          	mv	a0,s11
8000068c:	214000ef          	jal	800008a0 <itoa>
80000690:	40ad07b3          	sub	a5,s10,a0
80000694:	fcf44ee3          	blt	s0,a5,80000670 <printf+0x388>
80000698:	00048593          	mv	a1,s1
8000069c:	01000613          	li	a2,16
800006a0:	000d8513          	mv	a0,s11
800006a4:	1fc000ef          	jal	800008a0 <itoa>
800006a8:	00a484b3          	add	s1,s1,a0
800006ac:	cedff06f          	j	80000398 <printf+0xb0>
800006b0:	00000413          	li	s0,0
800006b4:	00098493          	mv	s1,s3
800006b8:	dadff06f          	j	80000464 <printf+0x17c>
800006bc:	06500513          	li	a0,101
800006c0:	a61ff0ef          	jal	80000120 <putch>
800006c4:	00a00513          	li	a0,10
800006c8:	a59ff0ef          	jal	80000120 <putch>
800006cc:	00244503          	lbu	a0,2(s0)
800006d0:	00000417          	auipc	s0,0x0
800006d4:	3a440413          	addi	s0,s0,932 # 80000a74 <_etext+0xd4>
800006d8:	a49ff0ef          	jal	80000120 <putch>
800006dc:	00a00513          	li	a0,10
800006e0:	a41ff0ef          	jal	80000120 <putch>
800006e4:	04100513          	li	a0,65
800006e8:	a39ff0ef          	jal	80000120 <putch>
800006ec:	00144503          	lbu	a0,1(s0)
800006f0:	00140413          	addi	s0,s0,1
800006f4:	fe051ae3          	bnez	a0,800006e8 <printf+0x400>
800006f8:	00000417          	auipc	s0,0x0
800006fc:	44440413          	addi	s0,s0,1092 # 80000b3c <_etext+0x19c>
80000700:	00a00513          	li	a0,10
80000704:	a1dff0ef          	jal	80000120 <putch>
80000708:	00144503          	lbu	a0,1(s0)
8000070c:	00140413          	addi	s0,s0,1
80000710:	fe051ae3          	bnez	a0,80000704 <printf+0x41c>
80000714:	00000417          	auipc	s0,0x0
80000718:	43c40413          	addi	s0,s0,1084 # 80000b50 <_etext+0x1b0>
8000071c:	02000513          	li	a0,32
80000720:	a01ff0ef          	jal	80000120 <putch>
80000724:	00144503          	lbu	a0,1(s0)
80000728:	00140413          	addi	s0,s0,1
8000072c:	fe051ae3          	bnez	a0,80000720 <printf+0x438>
80000730:	00100513          	li	a0,1
80000734:	9f9ff0ef          	jal	8000012c <halt>
80000738:	06500513          	li	a0,101
8000073c:	9e5ff0ef          	jal	80000120 <putch>
80000740:	00a00513          	li	a0,10
80000744:	9ddff0ef          	jal	80000120 <putch>
80000748:	00144503          	lbu	a0,1(s0)
8000074c:	00000417          	auipc	s0,0x0
80000750:	32840413          	addi	s0,s0,808 # 80000a74 <_etext+0xd4>
80000754:	9cdff0ef          	jal	80000120 <putch>
80000758:	00a00513          	li	a0,10
8000075c:	9c5ff0ef          	jal	80000120 <putch>
80000760:	04100513          	li	a0,65
80000764:	9bdff0ef          	jal	80000120 <putch>
80000768:	00144503          	lbu	a0,1(s0)
8000076c:	00140413          	addi	s0,s0,1
80000770:	fe051ae3          	bnez	a0,80000764 <printf+0x47c>
80000774:	00000417          	auipc	s0,0x0
80000778:	42440413          	addi	s0,s0,1060 # 80000b98 <_etext+0x1f8>
8000077c:	00a00513          	li	a0,10
80000780:	9a1ff0ef          	jal	80000120 <putch>
80000784:	00144503          	lbu	a0,1(s0)
80000788:	00140413          	addi	s0,s0,1
8000078c:	fe051ae3          	bnez	a0,80000780 <printf+0x498>
80000790:	00000417          	auipc	s0,0x0
80000794:	42440413          	addi	s0,s0,1060 # 80000bb4 <_etext+0x214>
80000798:	02000513          	li	a0,32
8000079c:	985ff0ef          	jal	80000120 <putch>
800007a0:	00144503          	lbu	a0,1(s0)
800007a4:	00140413          	addi	s0,s0,1
800007a8:	fe051ae3          	bnez	a0,8000079c <printf+0x4b4>
800007ac:	f85ff06f          	j	80000730 <printf+0x448>
800007b0:	06500513          	li	a0,101
800007b4:	96dff0ef          	jal	80000120 <putch>
800007b8:	00a00513          	li	a0,10
800007bc:	965ff0ef          	jal	80000120 <putch>
800007c0:	00344503          	lbu	a0,3(s0)
800007c4:	00000417          	auipc	s0,0x0
800007c8:	2b040413          	addi	s0,s0,688 # 80000a74 <_etext+0xd4>
800007cc:	955ff0ef          	jal	80000120 <putch>
800007d0:	00a00513          	li	a0,10
800007d4:	94dff0ef          	jal	80000120 <putch>
800007d8:	04100513          	li	a0,65
800007dc:	945ff0ef          	jal	80000120 <putch>
800007e0:	00144503          	lbu	a0,1(s0)
800007e4:	00140413          	addi	s0,s0,1
800007e8:	fe051ae3          	bnez	a0,800007dc <printf+0x4f4>
800007ec:	00000417          	auipc	s0,0x0
800007f0:	2f440413          	addi	s0,s0,756 # 80000ae0 <_etext+0x140>
800007f4:	00a00513          	li	a0,10
800007f8:	929ff0ef          	jal	80000120 <putch>
800007fc:	00144503          	lbu	a0,1(s0)
80000800:	00140413          	addi	s0,s0,1
80000804:	fe051ae3          	bnez	a0,800007f8 <printf+0x510>
80000808:	00000417          	auipc	s0,0x0
8000080c:	2ec40413          	addi	s0,s0,748 # 80000af4 <_etext+0x154>
80000810:	02000513          	li	a0,32
80000814:	90dff0ef          	jal	80000120 <putch>
80000818:	00144503          	lbu	a0,1(s0)
8000081c:	00140413          	addi	s0,s0,1
80000820:	fe051ae3          	bnez	a0,80000814 <printf+0x52c>
80000824:	f0dff06f          	j	80000730 <printf+0x448>
80000828:	06500513          	li	a0,101
8000082c:	8f5ff0ef          	jal	80000120 <putch>
80000830:	00a00513          	li	a0,10
80000834:	8edff0ef          	jal	80000120 <putch>
80000838:	00244503          	lbu	a0,2(s0)
8000083c:	00000417          	auipc	s0,0x0
80000840:	23840413          	addi	s0,s0,568 # 80000a74 <_etext+0xd4>
80000844:	8ddff0ef          	jal	80000120 <putch>
80000848:	00a00513          	li	a0,10
8000084c:	8d5ff0ef          	jal	80000120 <putch>
80000850:	04100513          	li	a0,65
80000854:	8cdff0ef          	jal	80000120 <putch>
80000858:	00144503          	lbu	a0,1(s0)
8000085c:	00140413          	addi	s0,s0,1
80000860:	fe051ae3          	bnez	a0,80000854 <printf+0x56c>
80000864:	00000417          	auipc	s0,0x0
80000868:	21c40413          	addi	s0,s0,540 # 80000a80 <_etext+0xe0>
8000086c:	00a00513          	li	a0,10
80000870:	8b1ff0ef          	jal	80000120 <putch>
80000874:	00144503          	lbu	a0,1(s0)
80000878:	00140413          	addi	s0,s0,1
8000087c:	fe051ae3          	bnez	a0,80000870 <printf+0x588>
80000880:	00000417          	auipc	s0,0x0
80000884:	21840413          	addi	s0,s0,536 # 80000a98 <_etext+0xf8>
80000888:	02000513          	li	a0,32
8000088c:	895ff0ef          	jal	80000120 <putch>
80000890:	00144503          	lbu	a0,1(s0)
80000894:	00140413          	addi	s0,s0,1
80000898:	fe051ae3          	bnez	a0,8000088c <printf+0x5a4>
8000089c:	e95ff06f          	j	80000730 <printf+0x448>

800008a0 <itoa>:
800008a0:	ff010113          	addi	sp,sp,-16
800008a4:	00112623          	sw	ra,12(sp)
800008a8:	80000737          	lui	a4,0x80000
800008ac:	00058793          	mv	a5,a1
800008b0:	0ce50c63          	beq	a0,a4,80000988 <itoa+0xe8>
800008b4:	00050313          	mv	t1,a0
800008b8:	0a050863          	beqz	a0,80000968 <itoa+0xc8>
800008bc:	41f55713          	srai	a4,a0,0x1f
800008c0:	00a74833          	xor	a6,a4,a0
800008c4:	40e80833          	sub	a6,a6,a4
800008c8:	00000513          	li	a0,0
800008cc:	00900e13          	li	t3,9
800008d0:	02c865b3          	rem	a1,a6,a2
800008d4:	00050693          	mv	a3,a0
800008d8:	00150513          	addi	a0,a0,1
800008dc:	0ff5f713          	zext.b	a4,a1
800008e0:	05770893          	addi	a7,a4,87 # 80000057 <main+0x2f>
800008e4:	03070713          	addi	a4,a4,48
800008e8:	0ff77713          	zext.b	a4,a4
800008ec:	00be5463          	bge	t3,a1,800008f4 <itoa+0x54>
800008f0:	0ff8f713          	zext.b	a4,a7
800008f4:	02c84833          	div	a6,a6,a2
800008f8:	00a785b3          	add	a1,a5,a0
800008fc:	fee58fa3          	sb	a4,-1(a1)
80000900:	fc0818e3          	bnez	a6,800008d0 <itoa+0x30>
80000904:	04034063          	bltz	t1,80000944 <itoa+0xa4>
80000908:	00058023          	sb	zero,0(a1)
8000090c:	40155593          	srai	a1,a0,0x1
80000910:	06058463          	beqz	a1,80000978 <itoa+0xd8>
80000914:	00d78733          	add	a4,a5,a3
80000918:	00b785b3          	add	a1,a5,a1
8000091c:	00074603          	lbu	a2,0(a4)
80000920:	0007c683          	lbu	a3,0(a5)
80000924:	00178793          	addi	a5,a5,1
80000928:	fff70713          	addi	a4,a4,-1
8000092c:	fec78fa3          	sb	a2,-1(a5)
80000930:	00d700a3          	sb	a3,1(a4)
80000934:	feb794e3          	bne	a5,a1,8000091c <itoa+0x7c>
80000938:	00c12083          	lw	ra,12(sp)
8000093c:	01010113          	addi	sp,sp,16
80000940:	00008067          	ret
80000944:	00268513          	addi	a0,a3,2
80000948:	02d00713          	li	a4,45
8000094c:	00e58023          	sb	a4,0(a1)
80000950:	00a78633          	add	a2,a5,a0
80000954:	00168713          	addi	a4,a3,1
80000958:	00060023          	sb	zero,0(a2)
8000095c:	40155593          	srai	a1,a0,0x1
80000960:	00e78733          	add	a4,a5,a4
80000964:	fb5ff06f          	j	80000918 <itoa+0x78>
80000968:	00000597          	auipc	a1,0x0
8000096c:	29458593          	addi	a1,a1,660 # 80000bfc <_etext+0x25c>
80000970:	00078513          	mv	a0,a5
80000974:	841ff0ef          	jal	800001b4 <strcpy>
80000978:	00c12083          	lw	ra,12(sp)
8000097c:	00100513          	li	a0,1
80000980:	01010113          	addi	sp,sp,16
80000984:	00008067          	ret
80000988:	00000597          	auipc	a1,0x0
8000098c:	27858593          	addi	a1,a1,632 # 80000c00 <_etext+0x260>
80000990:	00078513          	mv	a0,a5
80000994:	821ff0ef          	jal	800001b4 <strcpy>
80000998:	00b00513          	li	a0,11
8000099c:	f9dff06f          	j	80000938 <itoa+0x98>
