
/home/curry/code/ysyx_curry/am-kernels/tests/cpu-tests/build/string-riscv32-nemu.elf:     file format elf32-littleriscv


Disassembly of section .text:

80000000 <_start>:
80000000:	00000413          	li	s0,0
80000004:	00009117          	auipc	sp,0x9
80000008:	ffc10113          	addi	sp,sp,-4 # 80009000 <_end>
8000000c:	120000ef          	jal	8000012c <_trm_init>

80000010 <check>:
80000010:	00050463          	beqz	a0,80000018 <check+0x8>
80000014:	00008067          	ret
80000018:	ff010113          	addi	sp,sp,-16
8000001c:	00100513          	li	a0,1
80000020:	00112623          	sw	ra,12(sp)
80000024:	0fc000ef          	jal	80000120 <halt>

80000028 <main>:
80000028:	ff010113          	addi	sp,sp,-16
8000002c:	00812423          	sw	s0,8(sp)
80000030:	00000417          	auipc	s0,0x0
80000034:	2f040413          	addi	s0,s0,752 # 80000320 <s>
80000038:	00842583          	lw	a1,8(s0)
8000003c:	00042503          	lw	a0,0(s0)
80000040:	00112623          	sw	ra,12(sp)
80000044:	180000ef          	jal	800001c4 <strcmp>
80000048:	00153513          	seqz	a0,a0
8000004c:	fc5ff0ef          	jal	80000010 <check>
80000050:	00442583          	lw	a1,4(s0)
80000054:	00042503          	lw	a0,0(s0)
80000058:	16c000ef          	jal	800001c4 <strcmp>
8000005c:	01f55513          	srli	a0,a0,0x1f
80000060:	fb1ff0ef          	jal	80000010 <check>
80000064:	00442583          	lw	a1,4(s0)
80000068:	00042503          	lw	a0,0(s0)
8000006c:	00158593          	addi	a1,a1,1
80000070:	00150513          	addi	a0,a0,1
80000074:	150000ef          	jal	800001c4 <strcmp>
80000078:	01f55513          	srli	a0,a0,0x1f
8000007c:	f95ff0ef          	jal	80000010 <check>
80000080:	00442583          	lw	a1,4(s0)
80000084:	00042503          	lw	a0,0(s0)
80000088:	00258593          	addi	a1,a1,2
8000008c:	00250513          	addi	a0,a0,2
80000090:	134000ef          	jal	800001c4 <strcmp>
80000094:	01f55513          	srli	a0,a0,0x1f
80000098:	f79ff0ef          	jal	80000010 <check>
8000009c:	00442583          	lw	a1,4(s0)
800000a0:	00042503          	lw	a0,0(s0)
800000a4:	00358593          	addi	a1,a1,3
800000a8:	00350513          	addi	a0,a0,3
800000ac:	118000ef          	jal	800001c4 <strcmp>
800000b0:	01f55513          	srli	a0,a0,0x1f
800000b4:	f5dff0ef          	jal	80000010 <check>
800000b8:	00000597          	auipc	a1,0x0
800000bc:	26058593          	addi	a1,a1,608 # 80000318 <str1>
800000c0:	00000517          	auipc	a0,0x0
800000c4:	27850513          	addi	a0,a0,632 # 80000338 <str>
800000c8:	084000ef          	jal	8000014c <strcpy>
800000cc:	00c42583          	lw	a1,12(s0)
800000d0:	0ac000ef          	jal	8000017c <strcat>
800000d4:	01042583          	lw	a1,16(s0)
800000d8:	0ec000ef          	jal	800001c4 <strcmp>
800000dc:	00153513          	seqz	a0,a0
800000e0:	f31ff0ef          	jal	80000010 <check>
800000e4:	00500613          	li	a2,5
800000e8:	02300593          	li	a1,35
800000ec:	00000517          	auipc	a0,0x0
800000f0:	24c50513          	addi	a0,a0,588 # 80000338 <str>
800000f4:	118000ef          	jal	8000020c <memset>
800000f8:	01442583          	lw	a1,20(s0)
800000fc:	00500613          	li	a2,5
80000100:	12c000ef          	jal	8000022c <memcmp>
80000104:	00153513          	seqz	a0,a0
80000108:	f09ff0ef          	jal	80000010 <check>
8000010c:	00c12083          	lw	ra,12(sp)
80000110:	00812403          	lw	s0,8(sp)
80000114:	00000513          	li	a0,0
80000118:	01010113          	addi	sp,sp,16
8000011c:	00008067          	ret

80000120 <halt>:
80000120:	00050513          	mv	a0,a0
80000124:	00100073          	ebreak
80000128:	0000006f          	j	80000128 <halt+0x8>

8000012c <_trm_init>:
8000012c:	ff010113          	addi	sp,sp,-16
80000130:	00000517          	auipc	a0,0x0
80000134:	1a850513          	addi	a0,a0,424 # 800002d8 <mainargs>
80000138:	00112623          	sw	ra,12(sp)
8000013c:	eedff0ef          	jal	80000028 <main>
80000140:	00050513          	mv	a0,a0
80000144:	00100073          	ebreak
80000148:	0000006f          	j	80000148 <_trm_init+0x1c>

8000014c <strcpy>:
8000014c:	02058463          	beqz	a1,80000174 <strcpy+0x28>
80000150:	02050463          	beqz	a0,80000178 <strcpy+0x2c>
80000154:	00050793          	mv	a5,a0
80000158:	0005c703          	lbu	a4,0(a1)
8000015c:	00158593          	addi	a1,a1,1
80000160:	00178793          	addi	a5,a5,1
80000164:	fee78fa3          	sb	a4,-1(a5)
80000168:	0005c703          	lbu	a4,0(a1)
8000016c:	fe0716e3          	bnez	a4,80000158 <strcpy+0xc>
80000170:	00008067          	ret
80000174:	00000513          	li	a0,0
80000178:	00008067          	ret

8000017c <strcat>:
8000017c:	02050e63          	beqz	a0,800001b8 <strcat+0x3c>
80000180:	00054783          	lbu	a5,0(a0)
80000184:	02078c63          	beqz	a5,800001bc <strcat+0x40>
80000188:	00150713          	addi	a4,a0,1
8000018c:	00074683          	lbu	a3,0(a4)
80000190:	00070793          	mv	a5,a4
80000194:	00170713          	addi	a4,a4,1
80000198:	fe069ae3          	bnez	a3,8000018c <strcat+0x10>
8000019c:	00058e63          	beqz	a1,800001b8 <strcat+0x3c>
800001a0:	0005c703          	lbu	a4,0(a1)
800001a4:	00158593          	addi	a1,a1,1
800001a8:	00178793          	addi	a5,a5,1
800001ac:	fee78fa3          	sb	a4,-1(a5)
800001b0:	0005c703          	lbu	a4,0(a1)
800001b4:	fe0716e3          	bnez	a4,800001a0 <strcat+0x24>
800001b8:	00008067          	ret
800001bc:	00050793          	mv	a5,a0
800001c0:	fddff06f          	j	8000019c <strcat+0x20>

800001c4 <strcmp>:
800001c4:	00054703          	lbu	a4,0(a0)
800001c8:	00071c63          	bnez	a4,800001e0 <strcmp+0x1c>
800001cc:	0380006f          	j	80000204 <strcmp+0x40>
800001d0:	02e79063          	bne	a5,a4,800001f0 <strcmp+0x2c>
800001d4:	00054703          	lbu	a4,0(a0)
800001d8:	02070063          	beqz	a4,800001f8 <strcmp+0x34>
800001dc:	00068593          	mv	a1,a3
800001e0:	0005c783          	lbu	a5,0(a1)
800001e4:	00150513          	addi	a0,a0,1
800001e8:	00158693          	addi	a3,a1,1
800001ec:	fe0792e3          	bnez	a5,800001d0 <strcmp+0xc>
800001f0:	40f70533          	sub	a0,a4,a5
800001f4:	00008067          	ret
800001f8:	0015c783          	lbu	a5,1(a1)
800001fc:	40f70533          	sub	a0,a4,a5
80000200:	00008067          	ret
80000204:	0005c783          	lbu	a5,0(a1)
80000208:	fe9ff06f          	j	800001f0 <strcmp+0x2c>

8000020c <memset>:
8000020c:	0ff5f593          	zext.b	a1,a1
80000210:	00c50733          	add	a4,a0,a2
80000214:	00050793          	mv	a5,a0
80000218:	00060863          	beqz	a2,80000228 <memset+0x1c>
8000021c:	00178793          	addi	a5,a5,1
80000220:	feb78fa3          	sb	a1,-1(a5)
80000224:	fef71ce3          	bne	a4,a5,8000021c <memset+0x10>
80000228:	00008067          	ret

8000022c <memcmp>:
8000022c:	02060663          	beqz	a2,80000258 <memcmp+0x2c>
80000230:	00c50633          	add	a2,a0,a2
80000234:	0080006f          	j	8000023c <memcmp+0x10>
80000238:	02c50063          	beq	a0,a2,80000258 <memcmp+0x2c>
8000023c:	00054783          	lbu	a5,0(a0)
80000240:	0005c703          	lbu	a4,0(a1)
80000244:	00150513          	addi	a0,a0,1
80000248:	00158593          	addi	a1,a1,1
8000024c:	fee786e3          	beq	a5,a4,80000238 <memcmp+0xc>
80000250:	40e78533          	sub	a0,a5,a4
80000254:	00008067          	ret
80000258:	00000513          	li	a0,0
8000025c:	00008067          	ret
