
/home/curry/code/ysyx_curry/am-kernels/benchmarks/coremark/build/coremark-riscv32-nemu.elf:     file format elf32-littleriscv


Disassembly of section .text:

80000000 <_start>:
80000000:	00000413          	li	s0,0
80000004:	0000c117          	auipc	sp,0xc
80000008:	ffc10113          	addi	sp,sp,-4 # 8000c000 <_end>
8000000c:	1fc020ef          	jal	80002208 <_trm_init>

80000010 <iterate>:
80000010:	ff010113          	addi	sp,sp,-16
80000014:	01212023          	sw	s2,0(sp)
80000018:	01c52903          	lw	s2,28(a0)
8000001c:	00112623          	sw	ra,12(sp)
80000020:	02052c23          	sw	zero,56(a0)
80000024:	02052e23          	sw	zero,60(a0)
80000028:	04090e63          	beqz	s2,80000084 <iterate+0x74>
8000002c:	00812423          	sw	s0,8(sp)
80000030:	00912223          	sw	s1,4(sp)
80000034:	00050413          	mv	s0,a0
80000038:	00000493          	li	s1,0
8000003c:	00100593          	li	a1,1
80000040:	00040513          	mv	a0,s0
80000044:	051010ef          	jal	80001894 <core_bench_list>
80000048:	03845583          	lhu	a1,56(s0)
8000004c:	4f1010ef          	jal	80001d3c <crcu16>
80000050:	02a41c23          	sh	a0,56(s0)
80000054:	fff00593          	li	a1,-1
80000058:	00040513          	mv	a0,s0
8000005c:	039010ef          	jal	80001894 <core_bench_list>
80000060:	03845583          	lhu	a1,56(s0)
80000064:	4d9010ef          	jal	80001d3c <crcu16>
80000068:	02a41c23          	sh	a0,56(s0)
8000006c:	00049463          	bnez	s1,80000074 <iterate+0x64>
80000070:	02a41d23          	sh	a0,58(s0)
80000074:	00148493          	addi	s1,s1,1
80000078:	fc9912e3          	bne	s2,s1,8000003c <iterate+0x2c>
8000007c:	00812403          	lw	s0,8(sp)
80000080:	00412483          	lw	s1,4(sp)
80000084:	00c12083          	lw	ra,12(sp)
80000088:	00012903          	lw	s2,0(sp)
8000008c:	00000513          	li	a0,0
80000090:	01010113          	addi	sp,sp,16
80000094:	00008067          	ret

80000098 <main>:
80000098:	f7010113          	addi	sp,sp,-144
8000009c:	08112623          	sw	ra,140(sp)
800000a0:	08812423          	sw	s0,136(sp)
800000a4:	08912223          	sw	s1,132(sp)
800000a8:	00058413          	mv	s0,a1
800000ac:	09212023          	sw	s2,128(sp)
800000b0:	07312e23          	sw	s3,124(sp)
800000b4:	07912223          	sw	s9,100(sp)
800000b8:	00a12623          	sw	a0,12(sp)
800000bc:	000020ef          	jal	800020bc <ioe_init>
800000c0:	3e800593          	li	a1,1000
800000c4:	00003517          	auipc	a0,0x3
800000c8:	cf850513          	addi	a0,a0,-776 # 80002dbc <_etext>
800000cc:	5d4020ef          	jal	800026a0 <printf>
800000d0:	00040613          	mv	a2,s0
800000d4:	00c10593          	addi	a1,sp,12
800000d8:	05e10513          	addi	a0,sp,94
800000dc:	739010ef          	jal	80002014 <portable_init>
800000e0:	00100513          	li	a0,1
800000e4:	3f1010ef          	jal	80001cd4 <get_seed_32>
800000e8:	00050793          	mv	a5,a0
800000ec:	00200513          	li	a0,2
800000f0:	00f11e23          	sh	a5,28(sp)
800000f4:	3e1010ef          	jal	80001cd4 <get_seed_32>
800000f8:	00050793          	mv	a5,a0
800000fc:	00300513          	li	a0,3
80000100:	00f11f23          	sh	a5,30(sp)
80000104:	3d1010ef          	jal	80001cd4 <get_seed_32>
80000108:	00050793          	mv	a5,a0
8000010c:	00400513          	li	a0,4
80000110:	02f11023          	sh	a5,32(sp)
80000114:	3c1010ef          	jal	80001cd4 <get_seed_32>
80000118:	00050793          	mv	a5,a0
8000011c:	00500513          	li	a0,5
80000120:	02f12c23          	sw	a5,56(sp)
80000124:	3b1010ef          	jal	80001cd4 <get_seed_32>
80000128:	00051463          	bnez	a0,80000130 <main+0x98>
8000012c:	00700513          	li	a0,7
80000130:	01c12783          	lw	a5,28(sp)
80000134:	02a12e23          	sw	a0,60(sp)
80000138:	1e079063          	bnez	a5,80000318 <main+0x280>
8000013c:	02011783          	lh	a5,32(sp)
80000140:	1e078a63          	beqz	a5,80000334 <main+0x29c>
80000144:	00003317          	auipc	t1,0x3
80000148:	60430313          	addi	t1,t1,1540 # 80003748 <static_memblk>
8000014c:	00257793          	andi	a5,a0,2
80000150:	00157713          	andi	a4,a0,1
80000154:	00f037b3          	snez	a5,a5
80000158:	02612223          	sw	t1,36(sp)
8000015c:	04011e23          	sh	zero,92(sp)
80000160:	00457693          	andi	a3,a0,4
80000164:	00f70733          	add	a4,a4,a5
80000168:	00068863          	beqz	a3,80000178 <main+0xe0>
8000016c:	00170713          	addi	a4,a4,1
80000170:	01071713          	slli	a4,a4,0x10
80000174:	01075713          	srli	a4,a4,0x10
80000178:	7d000593          	li	a1,2000
8000017c:	02e5d5b3          	divu	a1,a1,a4
80000180:	01c10693          	addi	a3,sp,28
80000184:	00000793          	li	a5,0
80000188:	00000613          	li	a2,0
8000018c:	00100893          	li	a7,1
80000190:	00300813          	li	a6,3
80000194:	02b12a23          	sw	a1,52(sp)
80000198:	00f89733          	sll	a4,a7,a5
8000019c:	00a77733          	and	a4,a4,a0
800001a0:	00178793          	addi	a5,a5,1
800001a4:	14071c63          	bnez	a4,800002fc <main+0x264>
800001a8:	00468693          	addi	a3,a3,4
800001ac:	ff0796e3          	bne	a5,a6,80000198 <main+0x100>
800001b0:	03c12783          	lw	a5,60(sp)
800001b4:	0017f713          	andi	a4,a5,1
800001b8:	00070e63          	beqz	a4,800001d4 <main+0x13c>
800001bc:	01c11603          	lh	a2,28(sp)
800001c0:	02812583          	lw	a1,40(sp)
800001c4:	03412503          	lw	a0,52(sp)
800001c8:	179010ef          	jal	80001b40 <core_list_init>
800001cc:	03c12783          	lw	a5,60(sp)
800001d0:	04a12023          	sw	a0,64(sp)
800001d4:	0027f713          	andi	a4,a5,2
800001d8:	0e071e63          	bnez	a4,800002d4 <main+0x23c>
800001dc:	0047f793          	andi	a5,a5,4
800001e0:	00078a63          	beqz	a5,800001f4 <main+0x15c>
800001e4:	03012603          	lw	a2,48(sp)
800001e8:	01c11583          	lh	a1,28(sp)
800001ec:	03412503          	lw	a0,52(sp)
800001f0:	5d4000ef          	jal	800007c4 <core_init_state>
800001f4:	03812783          	lw	a5,56(sp)
800001f8:	04079a63          	bnez	a5,8000024c <main+0x1b4>
800001fc:	00100793          	li	a5,1
80000200:	02f12c23          	sw	a5,56(sp)
80000204:	03812703          	lw	a4,56(sp)
80000208:	00271793          	slli	a5,a4,0x2
8000020c:	00e787b3          	add	a5,a5,a4
80000210:	00179793          	slli	a5,a5,0x1
80000214:	02f12c23          	sw	a5,56(sp)
80000218:	569010ef          	jal	80001f80 <start_time>
8000021c:	01c10513          	addi	a0,sp,28
80000220:	df1ff0ef          	jal	80000010 <iterate>
80000224:	599010ef          	jal	80001fbc <stop_time>
80000228:	5d1010ef          	jal	80001ff8 <get_time>
8000022c:	5e5010ef          	jal	80002010 <time_in_secs>
80000230:	fc050ae3          	beqz	a0,80000204 <main+0x16c>
80000234:	00a00793          	li	a5,10
80000238:	02a7d7b3          	divu	a5,a5,a0
8000023c:	03812703          	lw	a4,56(sp)
80000240:	00178793          	addi	a5,a5,1
80000244:	02f707b3          	mul	a5,a4,a5
80000248:	02f12c23          	sw	a5,56(sp)
8000024c:	535010ef          	jal	80001f80 <start_time>
80000250:	01c10513          	addi	a0,sp,28
80000254:	dbdff0ef          	jal	80000010 <iterate>
80000258:	565010ef          	jal	80001fbc <stop_time>
8000025c:	59d010ef          	jal	80001ff8 <get_time>
80000260:	00050913          	mv	s2,a0
80000264:	01c11503          	lh	a0,28(sp)
80000268:	00000593          	li	a1,0
8000026c:	479010ef          	jal	80001ee4 <crc16>
80000270:	00050593          	mv	a1,a0
80000274:	01e11503          	lh	a0,30(sp)
80000278:	46d010ef          	jal	80001ee4 <crc16>
8000027c:	00050593          	mv	a1,a0
80000280:	02011503          	lh	a0,32(sp)
80000284:	461010ef          	jal	80001ee4 <crc16>
80000288:	00050593          	mv	a1,a0
8000028c:	03411503          	lh	a0,52(sp)
80000290:	455010ef          	jal	80001ee4 <crc16>
80000294:	000087b7          	lui	a5,0x8
80000298:	b0578793          	addi	a5,a5,-1275 # 7b05 <_entry_offset+0x7b05>
8000029c:	00050993          	mv	s3,a0
800002a0:	4ef50e63          	beq	a0,a5,8000079c <main+0x704>
800002a4:	08a7fe63          	bgeu	a5,a0,80000340 <main+0x2a8>
800002a8:	000097b7          	lui	a5,0x9
800002ac:	a0278793          	addi	a5,a5,-1534 # 8a02 <_entry_offset+0x8a02>
800002b0:	4cf50c63          	beq	a0,a5,80000788 <main+0x6f0>
800002b4:	0000f7b7          	lui	a5,0xf
800002b8:	9f578793          	addi	a5,a5,-1547 # e9f5 <_entry_offset+0xe9f5>
800002bc:	20f51063          	bne	a0,a5,800004bc <main+0x424>
800002c0:	00003517          	auipc	a0,0x3
800002c4:	bb050513          	addi	a0,a0,-1104 # 80002e70 <_etext+0xb4>
800002c8:	3d8020ef          	jal	800026a0 <printf>
800002cc:	00300793          	li	a5,3
800002d0:	0980006f          	j	80000368 <main+0x2d0>
800002d4:	01e11783          	lh	a5,30(sp)
800002d8:	01c11603          	lh	a2,28(sp)
800002dc:	02c12583          	lw	a1,44(sp)
800002e0:	03412503          	lw	a0,52(sp)
800002e4:	01079793          	slli	a5,a5,0x10
800002e8:	00c7e633          	or	a2,a5,a2
800002ec:	04410693          	addi	a3,sp,68
800002f0:	2dd000ef          	jal	80000dcc <core_init_matrix>
800002f4:	03c12783          	lw	a5,60(sp)
800002f8:	ee5ff06f          	j	800001dc <main+0x144>
800002fc:	02b60733          	mul	a4,a2,a1
80000300:	00160613          	addi	a2,a2,1
80000304:	01061613          	slli	a2,a2,0x10
80000308:	01065613          	srli	a2,a2,0x10
8000030c:	00e30733          	add	a4,t1,a4
80000310:	00e6a623          	sw	a4,12(a3)
80000314:	e95ff06f          	j	800001a8 <main+0x110>
80000318:	00100713          	li	a4,1
8000031c:	e2e794e3          	bne	a5,a4,80000144 <main+0xac>
80000320:	02011783          	lh	a5,32(sp)
80000324:	e20790e3          	bnez	a5,80000144 <main+0xac>
80000328:	341537b7          	lui	a5,0x34153
8000032c:	41578793          	addi	a5,a5,1045 # 34153415 <_entry_offset+0x34153415>
80000330:	00f12e23          	sw	a5,28(sp)
80000334:	06600793          	li	a5,102
80000338:	02f11023          	sh	a5,32(sp)
8000033c:	e09ff06f          	j	80000144 <main+0xac>
80000340:	000027b7          	lui	a5,0x2
80000344:	8f278793          	addi	a5,a5,-1806 # 18f2 <_entry_offset+0x18f2>
80000348:	42f50663          	beq	a0,a5,80000774 <main+0x6dc>
8000034c:	000057b7          	lui	a5,0x5
80000350:	eaf78793          	addi	a5,a5,-337 # 4eaf <_entry_offset+0x4eaf>
80000354:	16f51463          	bne	a0,a5,800004bc <main+0x424>
80000358:	00003517          	auipc	a0,0x3
8000035c:	ae450513          	addi	a0,a0,-1308 # 80002e3c <_etext+0x80>
80000360:	340020ef          	jal	800026a0 <printf>
80000364:	00200793          	li	a5,2
80000368:	00003c97          	auipc	s9,0x3
8000036c:	1d4c8c93          	addi	s9,s9,468 # 8000353c <default_num_contexts>
80000370:	000ca703          	lw	a4,0(s9)
80000374:	42070e63          	beqz	a4,800007b0 <main+0x718>
80000378:	00179793          	slli	a5,a5,0x1
8000037c:	07412c23          	sw	s4,120(sp)
80000380:	07512a23          	sw	s5,116(sp)
80000384:	07612823          	sw	s6,112(sp)
80000388:	00003a97          	auipc	s5,0x3
8000038c:	0aca8a93          	addi	s5,s5,172 # 80003434 <matrix_known_crc>
80000390:	00003b17          	auipc	s6,0x3
80000394:	0b0b0b13          	addi	s6,s6,176 # 80003440 <list_known_crc>
80000398:	00003a17          	auipc	s4,0x3
8000039c:	090a0a13          	addi	s4,s4,144 # 80003428 <state_known_crc>
800003a0:	07712623          	sw	s7,108(sp)
800003a4:	07812423          	sw	s8,104(sp)
800003a8:	07a12023          	sw	s10,96(sp)
800003ac:	00000c13          	li	s8,0
800003b0:	00000d13          	li	s10,0
800003b4:	00fb0b33          	add	s6,s6,a5
800003b8:	00003b97          	auipc	s7,0x3
800003bc:	b14b8b93          	addi	s7,s7,-1260 # 80002ecc <_etext+0x110>
800003c0:	00fa8ab3          	add	s5,s5,a5
800003c4:	00fa0a33          	add	s4,s4,a5
800003c8:	0380006f          	j	80000400 <main+0x368>
800003cc:	06040793          	addi	a5,s0,96
800003d0:	00278433          	add	s0,a5,sp
800003d4:	ffc45783          	lhu	a5,-4(s0)
800003d8:	001c0c13          	addi	s8,s8,1
800003dc:	000ca703          	lw	a4,0(s9)
800003e0:	01a787b3          	add	a5,a5,s10
800003e4:	010c1c13          	slli	s8,s8,0x10
800003e8:	01079493          	slli	s1,a5,0x10
800003ec:	01079d13          	slli	s10,a5,0x10
800003f0:	010c5c13          	srli	s8,s8,0x10
800003f4:	0104d493          	srli	s1,s1,0x10
800003f8:	410d5d13          	srai	s10,s10,0x10
800003fc:	30ec7863          	bgeu	s8,a4,8000070c <main+0x674>
80000400:	004c1413          	slli	s0,s8,0x4
80000404:	018404b3          	add	s1,s0,s8
80000408:	00249493          	slli	s1,s1,0x2
8000040c:	06048793          	addi	a5,s1,96
80000410:	002784b3          	add	s1,a5,sp
80000414:	fdc4a783          	lw	a5,-36(s1)
80000418:	fe049e23          	sh	zero,-4(s1)
8000041c:	0017f713          	andi	a4,a5,1
80000420:	02070663          	beqz	a4,8000044c <main+0x3b4>
80000424:	ff64d603          	lhu	a2,-10(s1)
80000428:	000b5683          	lhu	a3,0(s6)
8000042c:	02d60063          	beq	a2,a3,8000044c <main+0x3b4>
80000430:	000c0593          	mv	a1,s8
80000434:	000b8513          	mv	a0,s7
80000438:	268020ef          	jal	800026a0 <printf>
8000043c:	ffc4d703          	lhu	a4,-4(s1)
80000440:	fdc4a783          	lw	a5,-36(s1)
80000444:	00170713          	addi	a4,a4,1
80000448:	fee49e23          	sh	a4,-4(s1)
8000044c:	0027f713          	andi	a4,a5,2
80000450:	04070063          	beqz	a4,80000490 <main+0x3f8>
80000454:	018404b3          	add	s1,s0,s8
80000458:	00249493          	slli	s1,s1,0x2
8000045c:	06048713          	addi	a4,s1,96
80000460:	002704b3          	add	s1,a4,sp
80000464:	ff84d603          	lhu	a2,-8(s1)
80000468:	000ad683          	lhu	a3,0(s5)
8000046c:	02d60263          	beq	a2,a3,80000490 <main+0x3f8>
80000470:	000c0593          	mv	a1,s8
80000474:	00003517          	auipc	a0,0x3
80000478:	a8850513          	addi	a0,a0,-1400 # 80002efc <_etext+0x140>
8000047c:	224020ef          	jal	800026a0 <printf>
80000480:	ffc4d703          	lhu	a4,-4(s1)
80000484:	fdc4a783          	lw	a5,-36(s1)
80000488:	00170713          	addi	a4,a4,1
8000048c:	fee49e23          	sh	a4,-4(s1)
80000490:	01840433          	add	s0,s0,s8
80000494:	0047f793          	andi	a5,a5,4
80000498:	00241413          	slli	s0,s0,0x2
8000049c:	f20788e3          	beqz	a5,800003cc <main+0x334>
800004a0:	06040793          	addi	a5,s0,96
800004a4:	00278433          	add	s0,a5,sp
800004a8:	ffa45603          	lhu	a2,-6(s0)
800004ac:	000a5683          	lhu	a3,0(s4)
800004b0:	22d61a63          	bne	a2,a3,800006e4 <main+0x64c>
800004b4:	ffc45783          	lhu	a5,-4(s0)
800004b8:	f21ff06f          	j	800003d8 <main+0x340>
800004bc:	00010437          	lui	s0,0x10
800004c0:	fff40493          	addi	s1,s0,-1 # ffff <_entry_offset+0xffff>
800004c4:	00003c97          	auipc	s9,0x3
800004c8:	078c8c93          	addi	s9,s9,120 # 8000353c <default_num_contexts>
800004cc:	2ad010ef          	jal	80001f78 <check_data_types>
800004d0:	03412583          	lw	a1,52(sp)
800004d4:	009504b3          	add	s1,a0,s1
800004d8:	00003517          	auipc	a0,0x3
800004dc:	a8850513          	addi	a0,a0,-1400 # 80002f60 <_etext+0x1a4>
800004e0:	1c0020ef          	jal	800026a0 <printf>
800004e4:	00090513          	mv	a0,s2
800004e8:	329010ef          	jal	80002010 <time_in_secs>
800004ec:	00050593          	mv	a1,a0
800004f0:	00003517          	auipc	a0,0x3
800004f4:	a8850513          	addi	a0,a0,-1400 # 80002f78 <_etext+0x1bc>
800004f8:	1a8020ef          	jal	800026a0 <printf>
800004fc:	000ca783          	lw	a5,0(s9)
80000500:	03812583          	lw	a1,56(sp)
80000504:	00003517          	auipc	a0,0x3
80000508:	a8c50513          	addi	a0,a0,-1396 # 80002f90 <_etext+0x1d4>
8000050c:	01049493          	slli	s1,s1,0x10
80000510:	02f585b3          	mul	a1,a1,a5
80000514:	4104d493          	srai	s1,s1,0x10
80000518:	188020ef          	jal	800026a0 <printf>
8000051c:	00003597          	auipc	a1,0x3
80000520:	a8c58593          	addi	a1,a1,-1396 # 80002fa8 <_etext+0x1ec>
80000524:	00003517          	auipc	a0,0x3
80000528:	a9050513          	addi	a0,a0,-1392 # 80002fb4 <_etext+0x1f8>
8000052c:	174020ef          	jal	800026a0 <printf>
80000530:	00098593          	mv	a1,s3
80000534:	00003517          	auipc	a0,0x3
80000538:	a9850513          	addi	a0,a0,-1384 # 80002fcc <_etext+0x210>
8000053c:	164020ef          	jal	800026a0 <printf>
80000540:	03c12783          	lw	a5,60(sp)
80000544:	0017f713          	andi	a4,a5,1
80000548:	04070a63          	beqz	a4,8000059c <main+0x504>
8000054c:	000ca703          	lw	a4,0(s9)
80000550:	04070663          	beqz	a4,8000059c <main+0x504>
80000554:	00000413          	li	s0,0
80000558:	00003997          	auipc	s3,0x3
8000055c:	a9098993          	addi	s3,s3,-1392 # 80002fe8 <_etext+0x22c>
80000560:	00441793          	slli	a5,s0,0x4
80000564:	008787b3          	add	a5,a5,s0
80000568:	00279793          	slli	a5,a5,0x2
8000056c:	06078793          	addi	a5,a5,96
80000570:	002787b3          	add	a5,a5,sp
80000574:	ff67d603          	lhu	a2,-10(a5)
80000578:	00040593          	mv	a1,s0
8000057c:	00098513          	mv	a0,s3
80000580:	120020ef          	jal	800026a0 <printf>
80000584:	00140413          	addi	s0,s0,1
80000588:	000ca783          	lw	a5,0(s9)
8000058c:	01041413          	slli	s0,s0,0x10
80000590:	01045413          	srli	s0,s0,0x10
80000594:	fcf466e3          	bltu	s0,a5,80000560 <main+0x4c8>
80000598:	03c12783          	lw	a5,60(sp)
8000059c:	0027f713          	andi	a4,a5,2
800005a0:	04070a63          	beqz	a4,800005f4 <main+0x55c>
800005a4:	000ca703          	lw	a4,0(s9)
800005a8:	20070863          	beqz	a4,800007b8 <main+0x720>
800005ac:	00000413          	li	s0,0
800005b0:	00003997          	auipc	s3,0x3
800005b4:	a5498993          	addi	s3,s3,-1452 # 80003004 <_etext+0x248>
800005b8:	00441793          	slli	a5,s0,0x4
800005bc:	008787b3          	add	a5,a5,s0
800005c0:	00279793          	slli	a5,a5,0x2
800005c4:	06078793          	addi	a5,a5,96
800005c8:	002787b3          	add	a5,a5,sp
800005cc:	ff87d603          	lhu	a2,-8(a5)
800005d0:	00040593          	mv	a1,s0
800005d4:	00098513          	mv	a0,s3
800005d8:	0c8020ef          	jal	800026a0 <printf>
800005dc:	00140413          	addi	s0,s0,1
800005e0:	000ca783          	lw	a5,0(s9)
800005e4:	01041413          	slli	s0,s0,0x10
800005e8:	01045413          	srli	s0,s0,0x10
800005ec:	fcf466e3          	bltu	s0,a5,800005b8 <main+0x520>
800005f0:	03c12783          	lw	a5,60(sp)
800005f4:	0047f793          	andi	a5,a5,4
800005f8:	000ca703          	lw	a4,0(s9)
800005fc:	04078663          	beqz	a5,80000648 <main+0x5b0>
80000600:	00000413          	li	s0,0
80000604:	00003997          	auipc	s3,0x3
80000608:	a3098993          	addi	s3,s3,-1488 # 80003034 <_etext+0x278>
8000060c:	08070463          	beqz	a4,80000694 <main+0x5fc>
80000610:	00441793          	slli	a5,s0,0x4
80000614:	008787b3          	add	a5,a5,s0
80000618:	00279793          	slli	a5,a5,0x2
8000061c:	06078793          	addi	a5,a5,96
80000620:	002787b3          	add	a5,a5,sp
80000624:	ffa7d603          	lhu	a2,-6(a5)
80000628:	00040593          	mv	a1,s0
8000062c:	00098513          	mv	a0,s3
80000630:	070020ef          	jal	800026a0 <printf>
80000634:	00140413          	addi	s0,s0,1
80000638:	000ca783          	lw	a5,0(s9)
8000063c:	01041413          	slli	s0,s0,0x10
80000640:	01045413          	srli	s0,s0,0x10
80000644:	fcf466e3          	bltu	s0,a5,80000610 <main+0x578>
80000648:	000ca783          	lw	a5,0(s9)
8000064c:	00000413          	li	s0,0
80000650:	00003997          	auipc	s3,0x3
80000654:	a0098993          	addi	s3,s3,-1536 # 80003050 <_etext+0x294>
80000658:	02078e63          	beqz	a5,80000694 <main+0x5fc>
8000065c:	00441793          	slli	a5,s0,0x4
80000660:	008787b3          	add	a5,a5,s0
80000664:	00279793          	slli	a5,a5,0x2
80000668:	06078793          	addi	a5,a5,96
8000066c:	002787b3          	add	a5,a5,sp
80000670:	ff47d603          	lhu	a2,-12(a5)
80000674:	00040593          	mv	a1,s0
80000678:	00098513          	mv	a0,s3
8000067c:	024020ef          	jal	800026a0 <printf>
80000680:	00140413          	addi	s0,s0,1
80000684:	000ca783          	lw	a5,0(s9)
80000688:	01041413          	slli	s0,s0,0x10
8000068c:	01045413          	srli	s0,s0,0x10
80000690:	fcf466e3          	bltu	s0,a5,8000065c <main+0x5c4>
80000694:	00090593          	mv	a1,s2
80000698:	00003517          	auipc	a0,0x3
8000069c:	98850513          	addi	a0,a0,-1656 # 80003020 <_etext+0x264>
800006a0:	000020ef          	jal	800026a0 <printf>
800006a4:	08048a63          	beqz	s1,80000738 <main+0x6a0>
800006a8:	08904063          	bgtz	s1,80000728 <main+0x690>
800006ac:	00003517          	auipc	a0,0x3
800006b0:	a4c50513          	addi	a0,a0,-1460 # 800030f8 <_etext+0x33c>
800006b4:	7ed010ef          	jal	800026a0 <printf>
800006b8:	05e10513          	addi	a0,sp,94
800006bc:	165010ef          	jal	80002020 <portable_fini>
800006c0:	08c12083          	lw	ra,140(sp)
800006c4:	08812403          	lw	s0,136(sp)
800006c8:	08012903          	lw	s2,128(sp)
800006cc:	07c12983          	lw	s3,124(sp)
800006d0:	06412c83          	lw	s9,100(sp)
800006d4:	00048513          	mv	a0,s1
800006d8:	08412483          	lw	s1,132(sp)
800006dc:	09010113          	addi	sp,sp,144
800006e0:	00008067          	ret
800006e4:	000c0593          	mv	a1,s8
800006e8:	00003517          	auipc	a0,0x3
800006ec:	84850513          	addi	a0,a0,-1976 # 80002f30 <_etext+0x174>
800006f0:	7b1010ef          	jal	800026a0 <printf>
800006f4:	ffc45783          	lhu	a5,-4(s0)
800006f8:	00178793          	addi	a5,a5,1
800006fc:	01079793          	slli	a5,a5,0x10
80000700:	0107d793          	srli	a5,a5,0x10
80000704:	fef41e23          	sh	a5,-4(s0)
80000708:	cd1ff06f          	j	800003d8 <main+0x340>
8000070c:	07812a03          	lw	s4,120(sp)
80000710:	07412a83          	lw	s5,116(sp)
80000714:	07012b03          	lw	s6,112(sp)
80000718:	06c12b83          	lw	s7,108(sp)
8000071c:	06812c03          	lw	s8,104(sp)
80000720:	06012d03          	lw	s10,96(sp)
80000724:	da9ff06f          	j	800004cc <main+0x434>
80000728:	00003517          	auipc	a0,0x3
8000072c:	a3450513          	addi	a0,a0,-1484 # 8000315c <_etext+0x3a0>
80000730:	771010ef          	jal	800026a0 <printf>
80000734:	f85ff06f          	j	800006b8 <main+0x620>
80000738:	00003517          	auipc	a0,0x3
8000073c:	93450513          	addi	a0,a0,-1740 # 8000306c <_etext+0x2b0>
80000740:	761010ef          	jal	800026a0 <printf>
80000744:	00090513          	mv	a0,s2
80000748:	0c9010ef          	jal	80002010 <time_in_secs>
8000074c:	002c95b7          	lui	a1,0x2c9
80000750:	3b858593          	addi	a1,a1,952 # 2c93b8 <_entry_offset+0x2c93b8>
80000754:	02a5d5b3          	divu	a1,a1,a0
80000758:	00003517          	auipc	a0,0x3
8000075c:	94850513          	addi	a0,a0,-1720 # 800030a0 <_etext+0x2e4>
80000760:	741010ef          	jal	800026a0 <printf>
80000764:	00003517          	auipc	a0,0x3
80000768:	95c50513          	addi	a0,a0,-1700 # 800030c0 <_etext+0x304>
8000076c:	735010ef          	jal	800026a0 <printf>
80000770:	f49ff06f          	j	800006b8 <main+0x620>
80000774:	00002517          	auipc	a0,0x2
80000778:	72c50513          	addi	a0,a0,1836 # 80002ea0 <_etext+0xe4>
8000077c:	725010ef          	jal	800026a0 <printf>
80000780:	00400793          	li	a5,4
80000784:	be5ff06f          	j	80000368 <main+0x2d0>
80000788:	00002517          	auipc	a0,0x2
8000078c:	65850513          	addi	a0,a0,1624 # 80002de0 <_etext+0x24>
80000790:	711010ef          	jal	800026a0 <printf>
80000794:	00000793          	li	a5,0
80000798:	bd1ff06f          	j	80000368 <main+0x2d0>
8000079c:	00002517          	auipc	a0,0x2
800007a0:	67450513          	addi	a0,a0,1652 # 80002e10 <_etext+0x54>
800007a4:	6fd010ef          	jal	800026a0 <printf>
800007a8:	00100793          	li	a5,1
800007ac:	bbdff06f          	j	80000368 <main+0x2d0>
800007b0:	00000493          	li	s1,0
800007b4:	d19ff06f          	j	800004cc <main+0x434>
800007b8:	0047f793          	andi	a5,a5,4
800007bc:	e80786e3          	beqz	a5,80000648 <main+0x5b0>
800007c0:	ed5ff06f          	j	80000694 <main+0x5fc>

800007c4 <core_init_state>:
800007c4:	fff50813          	addi	a6,a0,-1
800007c8:	00100793          	li	a5,1
800007cc:	1507fa63          	bgeu	a5,a6,80000920 <core_init_state+0x15c>
800007d0:	00158593          	addi	a1,a1,1
800007d4:	01059593          	slli	a1,a1,0x10
800007d8:	ff010113          	addi	sp,sp,-16
800007dc:	0105d593          	srli	a1,a1,0x10
800007e0:	0035d793          	srli	a5,a1,0x3
800007e4:	00812623          	sw	s0,12(sp)
800007e8:	00912423          	sw	s1,8(sp)
800007ec:	01212223          	sw	s2,4(sp)
800007f0:	01312023          	sw	s3,0(sp)
800007f4:	00700893          	li	a7,7
800007f8:	0075f693          	andi	a3,a1,7
800007fc:	00000713          	li	a4,0
80000800:	00003397          	auipc	t2,0x3
80000804:	c4c38393          	addi	t2,t2,-948 # 8000344c <errpat>
80000808:	00400313          	li	t1,4
8000080c:	00003297          	auipc	t0,0x3
80000810:	c5028293          	addi	t0,t0,-944 # 8000345c <scipat>
80000814:	00100e13          	li	t3,1
80000818:	00003f97          	auipc	t6,0x3
8000081c:	c54f8f93          	addi	t6,t6,-940 # 8000346c <floatpat>
80000820:	00003f17          	auipc	t5,0x3
80000824:	c5cf0f13          	addi	t5,t5,-932 # 8000347c <intpat>
80000828:	02c00e93          	li	t4,44
8000082c:	0037f793          	andi	a5,a5,3
80000830:	07168e63          	beq	a3,a7,800008ac <core_init_state+0xe8>
80000834:	0cd36c63          	bltu	t1,a3,8000090c <core_init_state+0x148>
80000838:	ffd68693          	addi	a3,a3,-3
8000083c:	01069693          	slli	a3,a3,0x10
80000840:	0106d693          	srli	a3,a3,0x10
80000844:	00279793          	slli	a5,a5,0x2
80000848:	0ade6a63          	bltu	t3,a3,800008fc <core_init_state+0x138>
8000084c:	00ff87b3          	add	a5,t6,a5
80000850:	0007a783          	lw	a5,0(a5)
80000854:	00800493          	li	s1,8
80000858:	00170693          	addi	a3,a4,1
8000085c:	009689b3          	add	s3,a3,s1
80000860:	0709f463          	bgeu	s3,a6,800008c8 <core_init_state+0x104>
80000864:	00e60733          	add	a4,a2,a4
80000868:	00070693          	mv	a3,a4
8000086c:	00978933          	add	s2,a5,s1
80000870:	0007c403          	lbu	s0,0(a5)
80000874:	00178793          	addi	a5,a5,1
80000878:	00168693          	addi	a3,a3,1
8000087c:	fe868fa3          	sb	s0,-1(a3)
80000880:	fef918e3          	bne	s2,a5,80000870 <core_init_state+0xac>
80000884:	00158593          	addi	a1,a1,1
80000888:	01059593          	slli	a1,a1,0x10
8000088c:	00970733          	add	a4,a4,s1
80000890:	0105d593          	srli	a1,a1,0x10
80000894:	01d70023          	sb	t4,0(a4)
80000898:	0035d793          	srli	a5,a1,0x3
8000089c:	0075f693          	andi	a3,a1,7
800008a0:	00098713          	mv	a4,s3
800008a4:	0037f793          	andi	a5,a5,3
800008a8:	f91696e3          	bne	a3,a7,80000834 <core_init_state+0x70>
800008ac:	00279793          	slli	a5,a5,0x2
800008b0:	00800493          	li	s1,8
800008b4:	00170693          	addi	a3,a4,1
800008b8:	00f387b3          	add	a5,t2,a5
800008bc:	009689b3          	add	s3,a3,s1
800008c0:	0007a783          	lw	a5,0(a5)
800008c4:	fb09e0e3          	bltu	s3,a6,80000864 <core_init_state+0xa0>
800008c8:	00a76663          	bltu	a4,a0,800008d4 <core_init_state+0x110>
800008cc:	0180006f          	j	800008e4 <core_init_state+0x120>
800008d0:	00168693          	addi	a3,a3,1
800008d4:	00e60733          	add	a4,a2,a4
800008d8:	00070023          	sb	zero,0(a4)
800008dc:	00068713          	mv	a4,a3
800008e0:	fea6e8e3          	bltu	a3,a0,800008d0 <core_init_state+0x10c>
800008e4:	00c12403          	lw	s0,12(sp)
800008e8:	00812483          	lw	s1,8(sp)
800008ec:	00412903          	lw	s2,4(sp)
800008f0:	00012983          	lw	s3,0(sp)
800008f4:	01010113          	addi	sp,sp,16
800008f8:	00008067          	ret
800008fc:	00ff07b3          	add	a5,t5,a5
80000900:	0007a783          	lw	a5,0(a5)
80000904:	00400493          	li	s1,4
80000908:	f51ff06f          	j	80000858 <core_init_state+0x94>
8000090c:	00279793          	slli	a5,a5,0x2
80000910:	00f287b3          	add	a5,t0,a5
80000914:	0007a783          	lw	a5,0(a5)
80000918:	00800493          	li	s1,8
8000091c:	f3dff06f          	j	80000858 <core_init_state+0x94>
80000920:	00000713          	li	a4,0
80000924:	00100693          	li	a3,1
80000928:	0080006f          	j	80000930 <core_init_state+0x16c>
8000092c:	00168693          	addi	a3,a3,1
80000930:	00e60733          	add	a4,a2,a4
80000934:	00070023          	sb	zero,0(a4)
80000938:	00068713          	mv	a4,a3
8000093c:	fea6e8e3          	bltu	a3,a0,8000092c <core_init_state+0x168>
80000940:	00008067          	ret

80000944 <core_state_transition>:
80000944:	00052783          	lw	a5,0(a0)
80000948:	00050813          	mv	a6,a0
8000094c:	0007c703          	lbu	a4,0(a5)
80000950:	28070263          	beqz	a4,80000bd4 <core_state_transition+0x290>
80000954:	02c00693          	li	a3,44
80000958:	00000513          	li	a0,0
8000095c:	20d70a63          	beq	a4,a3,80000b70 <core_state_transition+0x22c>
80000960:	02e00513          	li	a0,46
80000964:	22a70663          	beq	a4,a0,80000b90 <core_state_transition+0x24c>
80000968:	1ce56a63          	bltu	a0,a4,80000b3c <core_state_transition+0x1f8>
8000096c:	fd570713          	addi	a4,a4,-43
80000970:	0fd77713          	andi	a4,a4,253
80000974:	02070663          	beqz	a4,800009a0 <core_state_transition+0x5c>
80000978:	0045a683          	lw	a3,4(a1)
8000097c:	0005a703          	lw	a4,0(a1)
80000980:	00178793          	addi	a5,a5,1
80000984:	00168693          	addi	a3,a3,1
80000988:	00170713          	addi	a4,a4,1
8000098c:	00d5a223          	sw	a3,4(a1)
80000990:	00e5a023          	sw	a4,0(a1)
80000994:	00100513          	li	a0,1
80000998:	00f82023          	sw	a5,0(a6)
8000099c:	00008067          	ret
800009a0:	0005a703          	lw	a4,0(a1)
800009a4:	00178613          	addi	a2,a5,1
800009a8:	00170713          	addi	a4,a4,1
800009ac:	00e5a023          	sw	a4,0(a1)
800009b0:	0017c883          	lbu	a7,1(a5)
800009b4:	26088663          	beqz	a7,80000c20 <core_state_transition+0x2dc>
800009b8:	20d88663          	beq	a7,a3,80000bc4 <core_state_transition+0x280>
800009bc:	0085a683          	lw	a3,8(a1)
800009c0:	fd088713          	addi	a4,a7,-48
800009c4:	0ff77713          	zext.b	a4,a4
800009c8:	00900313          	li	t1,9
800009cc:	00168693          	addi	a3,a3,1
800009d0:	00e37e63          	bgeu	t1,a4,800009ec <core_state_transition+0xa8>
800009d4:	1ea88463          	beq	a7,a0,80000bbc <core_state_transition+0x278>
800009d8:	00d5a423          	sw	a3,8(a1)
800009dc:	00278793          	addi	a5,a5,2
800009e0:	00100513          	li	a0,1
800009e4:	00f82023          	sw	a5,0(a6)
800009e8:	00008067          	ret
800009ec:	00d5a423          	sw	a3,8(a1)
800009f0:	00164783          	lbu	a5,1(a2)
800009f4:	00160613          	addi	a2,a2,1
800009f8:	1e078263          	beqz	a5,80000bdc <core_state_transition+0x298>
800009fc:	02c00713          	li	a4,44
80000a00:	16e78463          	beq	a5,a4,80000b68 <core_state_transition+0x224>
80000a04:	02e00713          	li	a4,46
80000a08:	02e78863          	beq	a5,a4,80000a38 <core_state_transition+0xf4>
80000a0c:	fd078793          	addi	a5,a5,-48
80000a10:	0ff7f793          	zext.b	a5,a5
80000a14:	00900713          	li	a4,9
80000a18:	fcf77ce3          	bgeu	a4,a5,800009f0 <core_state_transition+0xac>
80000a1c:	0105a703          	lw	a4,16(a1)
80000a20:	00160793          	addi	a5,a2,1
80000a24:	00100513          	li	a0,1
80000a28:	00170713          	addi	a4,a4,1
80000a2c:	00e5a823          	sw	a4,16(a1)
80000a30:	00f82023          	sw	a5,0(a6)
80000a34:	00008067          	ret
80000a38:	0105a783          	lw	a5,16(a1)
80000a3c:	00178793          	addi	a5,a5,1
80000a40:	00f5a823          	sw	a5,16(a1)
80000a44:	0140006f          	j	80000a58 <core_state_transition+0x114>
80000a48:	fd078793          	addi	a5,a5,-48
80000a4c:	0ff7f793          	zext.b	a5,a5
80000a50:	00900713          	li	a4,9
80000a54:	12f76263          	bltu	a4,a5,80000b78 <core_state_transition+0x234>
80000a58:	00164783          	lbu	a5,1(a2)
80000a5c:	00160613          	addi	a2,a2,1
80000a60:	1a078a63          	beqz	a5,80000c14 <core_state_transition+0x2d0>
80000a64:	02c00713          	li	a4,44
80000a68:	14e78263          	beq	a5,a4,80000bac <core_state_transition+0x268>
80000a6c:	0df7f713          	andi	a4,a5,223
80000a70:	04500693          	li	a3,69
80000a74:	fcd71ae3          	bne	a4,a3,80000a48 <core_state_transition+0x104>
80000a78:	0145a703          	lw	a4,20(a1)
80000a7c:	00160793          	addi	a5,a2,1
80000a80:	00300513          	li	a0,3
80000a84:	00170713          	addi	a4,a4,1
80000a88:	00e5aa23          	sw	a4,20(a1)
80000a8c:	00164703          	lbu	a4,1(a2)
80000a90:	f00704e3          	beqz	a4,80000998 <core_state_transition+0x54>
80000a94:	02c00693          	li	a3,44
80000a98:	14d70863          	beq	a4,a3,80000be8 <core_state_transition+0x2a4>
80000a9c:	00c5a783          	lw	a5,12(a1)
80000aa0:	fd570713          	addi	a4,a4,-43
80000aa4:	0fd77713          	andi	a4,a4,253
80000aa8:	00178793          	addi	a5,a5,1
80000aac:	00f5a623          	sw	a5,12(a1)
80000ab0:	00100513          	li	a0,1
80000ab4:	00260793          	addi	a5,a2,2
80000ab8:	ee0710e3          	bnez	a4,80000998 <core_state_transition+0x54>
80000abc:	00264703          	lbu	a4,2(a2)
80000ac0:	00260793          	addi	a5,a2,2
80000ac4:	00600513          	li	a0,6
80000ac8:	ec0708e3          	beqz	a4,80000998 <core_state_transition+0x54>
80000acc:	12d70463          	beq	a4,a3,80000bf4 <core_state_transition+0x2b0>
80000ad0:	0185a683          	lw	a3,24(a1)
80000ad4:	fd070713          	addi	a4,a4,-48
80000ad8:	0ff77713          	zext.b	a4,a4
80000adc:	00168693          	addi	a3,a3,1
80000ae0:	00900513          	li	a0,9
80000ae4:	00d5ac23          	sw	a3,24(a1)
80000ae8:	00e57a63          	bgeu	a0,a4,80000afc <core_state_transition+0x1b8>
80000aec:	00360793          	addi	a5,a2,3
80000af0:	00100513          	li	a0,1
80000af4:	00f82023          	sw	a5,0(a6)
80000af8:	00008067          	ret
80000afc:	00900613          	li	a2,9
80000b00:	0017c683          	lbu	a3,1(a5)
80000b04:	00078513          	mv	a0,a5
80000b08:	02c00893          	li	a7,44
80000b0c:	fd068713          	addi	a4,a3,-48
80000b10:	00178793          	addi	a5,a5,1
80000b14:	0ff77713          	zext.b	a4,a4
80000b18:	0e068463          	beqz	a3,80000c00 <core_state_transition+0x2bc>
80000b1c:	0f168663          	beq	a3,a7,80000c08 <core_state_transition+0x2c4>
80000b20:	fee670e3          	bgeu	a2,a4,80000b00 <core_state_transition+0x1bc>
80000b24:	0045a703          	lw	a4,4(a1)
80000b28:	00250793          	addi	a5,a0,2
80000b2c:	00100513          	li	a0,1
80000b30:	00170713          	addi	a4,a4,1
80000b34:	00e5a223          	sw	a4,4(a1)
80000b38:	e61ff06f          	j	80000998 <core_state_transition+0x54>
80000b3c:	fd070713          	addi	a4,a4,-48
80000b40:	0ff77713          	zext.b	a4,a4
80000b44:	00900613          	li	a2,9
80000b48:	e2e668e3          	bltu	a2,a4,80000978 <core_state_transition+0x34>
80000b4c:	0005a703          	lw	a4,0(a1)
80000b50:	00178613          	addi	a2,a5,1
80000b54:	00170713          	addi	a4,a4,1
80000b58:	00e5a023          	sw	a4,0(a1)
80000b5c:	0017c783          	lbu	a5,1(a5)
80000b60:	06078e63          	beqz	a5,80000bdc <core_state_transition+0x298>
80000b64:	ead790e3          	bne	a5,a3,80000a04 <core_state_transition+0xc0>
80000b68:	00060793          	mv	a5,a2
80000b6c:	00400513          	li	a0,4
80000b70:	00178793          	addi	a5,a5,1
80000b74:	e25ff06f          	j	80000998 <core_state_transition+0x54>
80000b78:	0145a703          	lw	a4,20(a1)
80000b7c:	00160793          	addi	a5,a2,1
80000b80:	00100513          	li	a0,1
80000b84:	00170713          	addi	a4,a4,1
80000b88:	00e5aa23          	sw	a4,20(a1)
80000b8c:	e0dff06f          	j	80000998 <core_state_transition+0x54>
80000b90:	0005a703          	lw	a4,0(a1)
80000b94:	00178613          	addi	a2,a5,1
80000b98:	00170713          	addi	a4,a4,1
80000b9c:	00e5a023          	sw	a4,0(a1)
80000ba0:	0017c783          	lbu	a5,1(a5)
80000ba4:	06078863          	beqz	a5,80000c14 <core_state_transition+0x2d0>
80000ba8:	ecd792e3          	bne	a5,a3,80000a6c <core_state_transition+0x128>
80000bac:	00060793          	mv	a5,a2
80000bb0:	00500513          	li	a0,5
80000bb4:	00178793          	addi	a5,a5,1
80000bb8:	de1ff06f          	j	80000998 <core_state_transition+0x54>
80000bbc:	00d5a423          	sw	a3,8(a1)
80000bc0:	e99ff06f          	j	80000a58 <core_state_transition+0x114>
80000bc4:	00060793          	mv	a5,a2
80000bc8:	00200513          	li	a0,2
80000bcc:	00178793          	addi	a5,a5,1
80000bd0:	dc9ff06f          	j	80000998 <core_state_transition+0x54>
80000bd4:	00000513          	li	a0,0
80000bd8:	dc1ff06f          	j	80000998 <core_state_transition+0x54>
80000bdc:	00060793          	mv	a5,a2
80000be0:	00400513          	li	a0,4
80000be4:	db5ff06f          	j	80000998 <core_state_transition+0x54>
80000be8:	00300513          	li	a0,3
80000bec:	00178793          	addi	a5,a5,1
80000bf0:	da9ff06f          	j	80000998 <core_state_transition+0x54>
80000bf4:	00600513          	li	a0,6
80000bf8:	00178793          	addi	a5,a5,1
80000bfc:	d9dff06f          	j	80000998 <core_state_transition+0x54>
80000c00:	00700513          	li	a0,7
80000c04:	d95ff06f          	j	80000998 <core_state_transition+0x54>
80000c08:	00700513          	li	a0,7
80000c0c:	00178793          	addi	a5,a5,1
80000c10:	d89ff06f          	j	80000998 <core_state_transition+0x54>
80000c14:	00060793          	mv	a5,a2
80000c18:	00500513          	li	a0,5
80000c1c:	d7dff06f          	j	80000998 <core_state_transition+0x54>
80000c20:	00060793          	mv	a5,a2
80000c24:	00200513          	li	a0,2
80000c28:	d71ff06f          	j	80000998 <core_state_transition+0x54>

80000c2c <core_bench_state>:
80000c2c:	f8010113          	addi	sp,sp,-128
80000c30:	06912a23          	sw	s1,116(sp)
80000c34:	07312623          	sw	s3,108(sp)
80000c38:	01010493          	addi	s1,sp,16
80000c3c:	03010993          	addi	s3,sp,48
80000c40:	06812c23          	sw	s0,120(sp)
80000c44:	07212823          	sw	s2,112(sp)
80000c48:	07412423          	sw	s4,104(sp)
80000c4c:	07612023          	sw	s6,96(sp)
80000c50:	05712e23          	sw	s7,92(sp)
80000c54:	05812c23          	sw	s8,88(sp)
80000c58:	00068b13          	mv	s6,a3
80000c5c:	00070a13          	mv	s4,a4
80000c60:	00078913          	mv	s2,a5
80000c64:	06112e23          	sw	ra,124(sp)
80000c68:	07512223          	sw	s5,100(sp)
80000c6c:	00058413          	mv	s0,a1
80000c70:	00050c13          	mv	s8,a0
80000c74:	00060b93          	mv	s7,a2
80000c78:	00b12623          	sw	a1,12(sp)
80000c7c:	05010693          	addi	a3,sp,80
80000c80:	00048713          	mv	a4,s1
80000c84:	00098793          	mv	a5,s3
80000c88:	0007a023          	sw	zero,0(a5)
80000c8c:	00072023          	sw	zero,0(a4)
80000c90:	00478793          	addi	a5,a5,4
80000c94:	00470713          	addi	a4,a4,4
80000c98:	fed798e3          	bne	a5,a3,80000c88 <core_bench_state+0x5c>
80000c9c:	00044783          	lbu	a5,0(s0)
80000ca0:	00c10a93          	addi	s5,sp,12
80000ca4:	10078e63          	beqz	a5,80000dc0 <core_bench_state+0x194>
80000ca8:	03010593          	addi	a1,sp,48
80000cac:	000a8513          	mv	a0,s5
80000cb0:	c95ff0ef          	jal	80000944 <core_state_transition>
80000cb4:	00251813          	slli	a6,a0,0x2
80000cb8:	05080793          	addi	a5,a6,80
80000cbc:	00278833          	add	a6,a5,sp
80000cc0:	00c12703          	lw	a4,12(sp)
80000cc4:	fc082783          	lw	a5,-64(a6)
80000cc8:	00074703          	lbu	a4,0(a4)
80000ccc:	00178793          	addi	a5,a5,1
80000cd0:	fcf82023          	sw	a5,-64(a6)
80000cd4:	fc071ae3          	bnez	a4,80000ca8 <core_bench_state+0x7c>
80000cd8:	00812623          	sw	s0,12(sp)
80000cdc:	01840c33          	add	s8,s0,s8
80000ce0:	03847863          	bgeu	s0,s8,80000d10 <core_bench_state+0xe4>
80000ce4:	00040793          	mv	a5,s0
80000ce8:	02c00613          	li	a2,44
80000cec:	0007c703          	lbu	a4,0(a5)
80000cf0:	017746b3          	xor	a3,a4,s7
80000cf4:	00c70463          	beq	a4,a2,80000cfc <core_bench_state+0xd0>
80000cf8:	00d78023          	sb	a3,0(a5)
80000cfc:	014787b3          	add	a5,a5,s4
80000d00:	ff87e6e3          	bltu	a5,s8,80000cec <core_bench_state+0xc0>
80000d04:	00044783          	lbu	a5,0(s0)
80000d08:	00c10a93          	addi	s5,sp,12
80000d0c:	02078a63          	beqz	a5,80000d40 <core_bench_state+0x114>
80000d10:	03010593          	addi	a1,sp,48
80000d14:	000a8513          	mv	a0,s5
80000d18:	c2dff0ef          	jal	80000944 <core_state_transition>
80000d1c:	00251613          	slli	a2,a0,0x2
80000d20:	05060793          	addi	a5,a2,80
80000d24:	00278633          	add	a2,a5,sp
80000d28:	00c12703          	lw	a4,12(sp)
80000d2c:	fc062783          	lw	a5,-64(a2)
80000d30:	00074703          	lbu	a4,0(a4)
80000d34:	00178793          	addi	a5,a5,1
80000d38:	fcf62023          	sw	a5,-64(a2)
80000d3c:	fc071ae3          	bnez	a4,80000d10 <core_bench_state+0xe4>
80000d40:	00812623          	sw	s0,12(sp)
80000d44:	02c00693          	li	a3,44
80000d48:	01847e63          	bgeu	s0,s8,80000d64 <core_bench_state+0x138>
80000d4c:	00044783          	lbu	a5,0(s0)
80000d50:	0167c733          	xor	a4,a5,s6
80000d54:	00d78463          	beq	a5,a3,80000d5c <core_bench_state+0x130>
80000d58:	00e40023          	sb	a4,0(s0)
80000d5c:	01440433          	add	s0,s0,s4
80000d60:	ff8466e3          	bltu	s0,s8,80000d4c <core_bench_state+0x120>
80000d64:	02048413          	addi	s0,s1,32
80000d68:	0004a503          	lw	a0,0(s1)
80000d6c:	00090593          	mv	a1,s2
80000d70:	00448493          	addi	s1,s1,4
80000d74:	054010ef          	jal	80001dc8 <crcu32>
80000d78:	00050593          	mv	a1,a0
80000d7c:	0009a503          	lw	a0,0(s3)
80000d80:	00498993          	addi	s3,s3,4
80000d84:	044010ef          	jal	80001dc8 <crcu32>
80000d88:	00050913          	mv	s2,a0
80000d8c:	fc941ee3          	bne	s0,s1,80000d68 <core_bench_state+0x13c>
80000d90:	07c12083          	lw	ra,124(sp)
80000d94:	07812403          	lw	s0,120(sp)
80000d98:	07412483          	lw	s1,116(sp)
80000d9c:	07012903          	lw	s2,112(sp)
80000da0:	06c12983          	lw	s3,108(sp)
80000da4:	06812a03          	lw	s4,104(sp)
80000da8:	06412a83          	lw	s5,100(sp)
80000dac:	06012b03          	lw	s6,96(sp)
80000db0:	05c12b83          	lw	s7,92(sp)
80000db4:	05812c03          	lw	s8,88(sp)
80000db8:	08010113          	addi	sp,sp,128
80000dbc:	00008067          	ret
80000dc0:	01840c33          	add	s8,s0,s8
80000dc4:	f38460e3          	bltu	s0,s8,80000ce4 <core_bench_state+0xb8>
80000dc8:	f9dff06f          	j	80000d64 <core_bench_state+0x138>

80000dcc <core_init_matrix>:
80000dcc:	ff010113          	addi	sp,sp,-16
80000dd0:	00912423          	sw	s1,8(sp)
80000dd4:	01212223          	sw	s2,4(sp)
80000dd8:	00050813          	mv	a6,a0
80000ddc:	00061463          	bnez	a2,80000de4 <core_init_matrix+0x18>
80000de0:	00100613          	li	a2,1
80000de4:	00000793          	li	a5,0
80000de8:	10080663          	beqz	a6,80000ef4 <core_init_matrix+0x128>
80000dec:	00078513          	mv	a0,a5
80000df0:	00178793          	addi	a5,a5,1
80000df4:	02f78733          	mul	a4,a5,a5
80000df8:	00371713          	slli	a4,a4,0x3
80000dfc:	ff0768e3          	bltu	a4,a6,80000dec <core_init_matrix+0x20>
80000e00:	02a502b3          	mul	t0,a0,a0
80000e04:	fff58593          	addi	a1,a1,-1
80000e08:	ffc5f793          	andi	a5,a1,-4
80000e0c:	00478493          	addi	s1,a5,4
80000e10:	00050913          	mv	s2,a0
80000e14:	00048e13          	mv	t3,s1
80000e18:	00129293          	slli	t0,t0,0x1
80000e1c:	005483b3          	add	t2,s1,t0
80000e20:	0c050663          	beqz	a0,80000eec <core_init_matrix+0x120>
80000e24:	00812623          	sw	s0,12(sp)
80000e28:	01312023          	sw	s3,0(sp)
80000e2c:	00010eb7          	lui	t4,0x10
80000e30:	00150313          	addi	t1,a0,1
80000e34:	00151413          	slli	s0,a0,0x1
80000e38:	00038f13          	mv	t5,t2
80000e3c:	00000f93          	li	t6,0
80000e40:	00100713          	li	a4,1
80000e44:	407e0e33          	sub	t3,t3,t2
80000e48:	fffe8e93          	addi	t4,t4,-1 # ffff <_entry_offset+0xffff>
80000e4c:	00070993          	mv	s3,a4
80000e50:	000f0813          	mv	a6,t5
80000e54:	02e60633          	mul	a2,a2,a4
80000e58:	01071793          	slli	a5,a4,0x10
80000e5c:	0107d793          	srli	a5,a5,0x10
80000e60:	010e08b3          	add	a7,t3,a6
80000e64:	00280813          	addi	a6,a6,2
80000e68:	00170713          	addi	a4,a4,1
80000e6c:	41f65593          	srai	a1,a2,0x1f
80000e70:	0105d593          	srli	a1,a1,0x10
80000e74:	00b60633          	add	a2,a2,a1
80000e78:	01d67633          	and	a2,a2,t4
80000e7c:	40b60633          	sub	a2,a2,a1
80000e80:	00c785b3          	add	a1,a5,a2
80000e84:	01059593          	slli	a1,a1,0x10
80000e88:	0105d593          	srli	a1,a1,0x10
80000e8c:	00f587b3          	add	a5,a1,a5
80000e90:	feb81f23          	sh	a1,-2(a6)
80000e94:	0ff7f793          	zext.b	a5,a5
80000e98:	00f89023          	sh	a5,0(a7)
80000e9c:	fa671ce3          	bne	a4,t1,80000e54 <core_init_matrix+0x88>
80000ea0:	001f8f93          	addi	t6,t6,1
80000ea4:	01350733          	add	a4,a0,s3
80000ea8:	00a30333          	add	t1,t1,a0
80000eac:	008f0f33          	add	t5,t5,s0
80000eb0:	f9f51ee3          	bne	a0,t6,80000e4c <core_init_matrix+0x80>
80000eb4:	00c12403          	lw	s0,12(sp)
80000eb8:	00012983          	lw	s3,0(sp)
80000ebc:	005387b3          	add	a5,t2,t0
80000ec0:	fff78793          	addi	a5,a5,-1
80000ec4:	ffc7f793          	andi	a5,a5,-4
80000ec8:	00478793          	addi	a5,a5,4
80000ecc:	0096a223          	sw	s1,4(a3)
80000ed0:	0126a023          	sw	s2,0(a3)
80000ed4:	0076a423          	sw	t2,8(a3)
80000ed8:	00f6a623          	sw	a5,12(a3)
80000edc:	00812483          	lw	s1,8(sp)
80000ee0:	00412903          	lw	s2,4(sp)
80000ee4:	01010113          	addi	sp,sp,16
80000ee8:	00008067          	ret
80000eec:	00000293          	li	t0,0
80000ef0:	fcdff06f          	j	80000ebc <core_init_matrix+0xf0>
80000ef4:	fff58593          	addi	a1,a1,-1
80000ef8:	ffc5f393          	andi	t2,a1,-4
80000efc:	00438e13          	addi	t3,t2,4
80000f00:	00812623          	sw	s0,12(sp)
80000f04:	01312023          	sw	s3,0(sp)
80000f08:	000e0493          	mv	s1,t3
80000f0c:	00638393          	addi	t2,t2,6
80000f10:	fff00913          	li	s2,-1
80000f14:	00200293          	li	t0,2
80000f18:	fff00513          	li	a0,-1
80000f1c:	f11ff06f          	j	80000e2c <core_init_matrix+0x60>

80000f20 <matrix_mul_vect>:
80000f20:	04050a63          	beqz	a0,80000f74 <matrix_mul_vect+0x54>
80000f24:	00251f13          	slli	t5,a0,0x2
80000f28:	00151e13          	slli	t3,a0,0x1
80000f2c:	01e58f33          	add	t5,a1,t5
80000f30:	01c68e33          	add	t3,a3,t3
80000f34:	00000e93          	li	t4,0
80000f38:	001e9813          	slli	a6,t4,0x1
80000f3c:	01060833          	add	a6,a2,a6
80000f40:	00068793          	mv	a5,a3
80000f44:	00000893          	li	a7,0
80000f48:	00081703          	lh	a4,0(a6)
80000f4c:	00079303          	lh	t1,0(a5)
80000f50:	00278793          	addi	a5,a5,2
80000f54:	00280813          	addi	a6,a6,2
80000f58:	02670733          	mul	a4,a4,t1
80000f5c:	00e888b3          	add	a7,a7,a4
80000f60:	fefe14e3          	bne	t3,a5,80000f48 <matrix_mul_vect+0x28>
80000f64:	0115a023          	sw	a7,0(a1)
80000f68:	00458593          	addi	a1,a1,4
80000f6c:	00ae8eb3          	add	t4,t4,a0
80000f70:	fcbf14e3          	bne	t5,a1,80000f38 <matrix_mul_vect+0x18>
80000f74:	00008067          	ret

80000f78 <matrix_mul_matrix>:
80000f78:	0a050463          	beqz	a0,80001020 <matrix_mul_matrix+0xa8>
80000f7c:	ff010113          	addi	sp,sp,-16
80000f80:	00050f13          	mv	t5,a0
80000f84:	00151513          	slli	a0,a0,0x1
80000f88:	00812623          	sw	s0,12(sp)
80000f8c:	00058393          	mv	t2,a1
80000f90:	00068413          	mv	s0,a3
80000f94:	00060e93          	mv	t4,a2
80000f98:	00a60833          	add	a6,a2,a0
80000f9c:	00000f93          	li	t6,0
80000fa0:	00000293          	li	t0,0
80000fa4:	002f9893          	slli	a7,t6,0x2
80000fa8:	011388b3          	add	a7,t2,a7
80000fac:	00040313          	mv	t1,s0
80000fb0:	00000e13          	li	t3,0
80000fb4:	00030693          	mv	a3,t1
80000fb8:	000e8793          	mv	a5,t4
80000fbc:	00000613          	li	a2,0
80000fc0:	00079703          	lh	a4,0(a5)
80000fc4:	00069583          	lh	a1,0(a3)
80000fc8:	00278793          	addi	a5,a5,2
80000fcc:	00a686b3          	add	a3,a3,a0
80000fd0:	02b70733          	mul	a4,a4,a1
80000fd4:	00e60633          	add	a2,a2,a4
80000fd8:	fef814e3          	bne	a6,a5,80000fc0 <matrix_mul_matrix+0x48>
80000fdc:	00c8a023          	sw	a2,0(a7)
80000fe0:	001e0793          	addi	a5,t3,1
80000fe4:	00488893          	addi	a7,a7,4
80000fe8:	00230313          	addi	t1,t1,2
80000fec:	00ff0663          	beq	t5,a5,80000ff8 <matrix_mul_matrix+0x80>
80000ff0:	00078e13          	mv	t3,a5
80000ff4:	fc1ff06f          	j	80000fb4 <matrix_mul_matrix+0x3c>
80000ff8:	00128793          	addi	a5,t0,1
80000ffc:	00ae8eb3          	add	t4,t4,a0
80001000:	01ef8fb3          	add	t6,t6,t5
80001004:	00a80833          	add	a6,a6,a0
80001008:	01c28663          	beq	t0,t3,80001014 <matrix_mul_matrix+0x9c>
8000100c:	00078293          	mv	t0,a5
80001010:	f95ff06f          	j	80000fa4 <matrix_mul_matrix+0x2c>
80001014:	00c12403          	lw	s0,12(sp)
80001018:	01010113          	addi	sp,sp,16
8000101c:	00008067          	ret
80001020:	00008067          	ret

80001024 <matrix_mul_matrix_bitextract>:
80001024:	0a050e63          	beqz	a0,800010e0 <matrix_mul_matrix_bitextract+0xbc>
80001028:	ff010113          	addi	sp,sp,-16
8000102c:	00050f13          	mv	t5,a0
80001030:	00151513          	slli	a0,a0,0x1
80001034:	00812623          	sw	s0,12(sp)
80001038:	00058393          	mv	t2,a1
8000103c:	00068413          	mv	s0,a3
80001040:	00060e93          	mv	t4,a2
80001044:	00a60833          	add	a6,a2,a0
80001048:	00000f93          	li	t6,0
8000104c:	00000293          	li	t0,0
80001050:	002f9893          	slli	a7,t6,0x2
80001054:	011388b3          	add	a7,t2,a7
80001058:	00040313          	mv	t1,s0
8000105c:	00000e13          	li	t3,0
80001060:	00030613          	mv	a2,t1
80001064:	000e8693          	mv	a3,t4
80001068:	00000593          	li	a1,0
8000106c:	00061703          	lh	a4,0(a2)
80001070:	00069783          	lh	a5,0(a3)
80001074:	00268693          	addi	a3,a3,2
80001078:	00a60633          	add	a2,a2,a0
8000107c:	02e787b3          	mul	a5,a5,a4
80001080:	4027d713          	srai	a4,a5,0x2
80001084:	4057d793          	srai	a5,a5,0x5
80001088:	00f77713          	andi	a4,a4,15
8000108c:	07f7f793          	andi	a5,a5,127
80001090:	02f707b3          	mul	a5,a4,a5
80001094:	00f585b3          	add	a1,a1,a5
80001098:	fcd81ae3          	bne	a6,a3,8000106c <matrix_mul_matrix_bitextract+0x48>
8000109c:	00b8a023          	sw	a1,0(a7)
800010a0:	001e0793          	addi	a5,t3,1
800010a4:	00488893          	addi	a7,a7,4
800010a8:	00230313          	addi	t1,t1,2
800010ac:	00ff0663          	beq	t5,a5,800010b8 <matrix_mul_matrix_bitextract+0x94>
800010b0:	00078e13          	mv	t3,a5
800010b4:	fadff06f          	j	80001060 <matrix_mul_matrix_bitextract+0x3c>
800010b8:	00128793          	addi	a5,t0,1
800010bc:	00ae8eb3          	add	t4,t4,a0
800010c0:	01ef8fb3          	add	t6,t6,t5
800010c4:	00a80833          	add	a6,a6,a0
800010c8:	01c28663          	beq	t0,t3,800010d4 <matrix_mul_matrix_bitextract+0xb0>
800010cc:	00078293          	mv	t0,a5
800010d0:	f81ff06f          	j	80001050 <matrix_mul_matrix_bitextract+0x2c>
800010d4:	00c12403          	lw	s0,12(sp)
800010d8:	01010113          	addi	sp,sp,16
800010dc:	00008067          	ret
800010e0:	00008067          	ret

800010e4 <matrix_test>:
800010e4:	fc010113          	addi	sp,sp,-64
800010e8:	02812c23          	sw	s0,56(sp)
800010ec:	02912a23          	sw	s1,52(sp)
800010f0:	03612023          	sw	s6,32(sp)
800010f4:	02112e23          	sw	ra,60(sp)
800010f8:	03212823          	sw	s2,48(sp)
800010fc:	00058b13          	mv	s6,a1
80001100:	00060413          	mv	s0,a2
80001104:	00068493          	mv	s1,a3
80001108:	3a050c63          	beqz	a0,800014c0 <matrix_test+0x3dc>
8000110c:	00151f13          	slli	t5,a0,0x1
80001110:	03312623          	sw	s3,44(sp)
80001114:	01912a23          	sw	s9,20(sp)
80001118:	01e605b3          	add	a1,a2,t5
8000111c:	40a00cb3          	neg	s9,a0
80001120:	01071993          	slli	s3,a4,0x10
80001124:	01b12623          	sw	s11,12(sp)
80001128:	03412423          	sw	s4,40(sp)
8000112c:	03512223          	sw	s5,36(sp)
80001130:	01712e23          	sw	s7,28(sp)
80001134:	01812c23          	sw	s8,24(sp)
80001138:	01a12823          	sw	s10,16(sp)
8000113c:	00050d93          	mv	s11,a0
80001140:	0109d993          	srli	s3,s3,0x10
80001144:	00058613          	mv	a2,a1
80001148:	00000813          	li	a6,0
8000114c:	002c9893          	slli	a7,s9,0x2
80001150:	41e60333          	sub	t1,a2,t5
80001154:	00030793          	mv	a5,t1
80001158:	0007d683          	lhu	a3,0(a5)
8000115c:	00278793          	addi	a5,a5,2
80001160:	00d986b3          	add	a3,s3,a3
80001164:	fed79f23          	sh	a3,-2(a5)
80001168:	fec798e3          	bne	a5,a2,80001158 <matrix_test+0x74>
8000116c:	00180513          	addi	a0,a6,1
80001170:	41130633          	sub	a2,t1,a7
80001174:	00ad8663          	beq	s11,a0,80001180 <matrix_test+0x9c>
80001178:	00050813          	mv	a6,a0
8000117c:	fd5ff06f          	j	80001150 <matrix_test+0x6c>
80001180:	00000e13          	li	t3,0
80001184:	00000e93          	li	t4,0
80001188:	41e58333          	sub	t1,a1,t5
8000118c:	002e1613          	slli	a2,t3,0x2
80001190:	01660633          	add	a2,a2,s6
80001194:	00030793          	mv	a5,t1
80001198:	00079683          	lh	a3,0(a5)
8000119c:	00460613          	addi	a2,a2,4
800011a0:	00278793          	addi	a5,a5,2
800011a4:	02e686b3          	mul	a3,a3,a4
800011a8:	fed62e23          	sw	a3,-4(a2)
800011ac:	feb796e3          	bne	a5,a1,80001198 <matrix_test+0xb4>
800011b0:	001e8793          	addi	a5,t4,1
800011b4:	00ae0e33          	add	t3,t3,a0
800011b8:	411305b3          	sub	a1,t1,a7
800011bc:	010e8663          	beq	t4,a6,800011c8 <matrix_test+0xe4>
800011c0:	00078e93          	mv	t4,a5
800011c4:	fc5ff06f          	j	80001188 <matrix_test+0xa4>
800011c8:	40a00e33          	neg	t3,a0
800011cc:	fffff7b7          	lui	a5,0xfffff
800011d0:	00f76933          	or	s2,a4,a5
800011d4:	411b0333          	sub	t1,s6,a7
800011d8:	00000513          	li	a0,0
800011dc:	00000713          	li	a4,0
800011e0:	00000613          	li	a2,0
800011e4:	00000f13          	li	t5,0
800011e8:	003e1e13          	slli	t3,t3,0x3
800011ec:	01130eb3          	add	t4,t1,a7
800011f0:	000e8793          	mv	a5,t4
800011f4:	0140006f          	j	80001208 <matrix_test+0x124>
800011f8:	01051513          	slli	a0,a0,0x10
800011fc:	00478793          	addi	a5,a5,4 # fffff004 <_end+0x7fff3004>
80001200:	41055513          	srai	a0,a0,0x10
80001204:	02678e63          	beq	a5,t1,80001240 <matrix_test+0x15c>
80001208:	00070693          	mv	a3,a4
8000120c:	0007a703          	lw	a4,0(a5)
80001210:	01051513          	slli	a0,a0,0x10
80001214:	01055513          	srli	a0,a0,0x10
80001218:	00e6a6b3          	slt	a3,a3,a4
8000121c:	00e60633          	add	a2,a2,a4
80001220:	00a50593          	addi	a1,a0,10
80001224:	00d50533          	add	a0,a0,a3
80001228:	fcc958e3          	bge	s2,a2,800011f8 <matrix_test+0x114>
8000122c:	01059513          	slli	a0,a1,0x10
80001230:	00478793          	addi	a5,a5,4
80001234:	41055513          	srai	a0,a0,0x10
80001238:	00000613          	li	a2,0
8000123c:	fc6796e3          	bne	a5,t1,80001208 <matrix_test+0x124>
80001240:	001f0793          	addi	a5,t5,1
80001244:	41ce8333          	sub	t1,t4,t3
80001248:	01e80663          	beq	a6,t5,80001254 <matrix_test+0x170>
8000124c:	00078f13          	mv	t5,a5
80001250:	f9dff06f          	j	800011ec <matrix_test+0x108>
80001254:	00000593          	li	a1,0
80001258:	48d000ef          	jal	80001ee4 <crc16>
8000125c:	00040613          	mv	a2,s0
80001260:	00050b93          	mv	s7,a0
80001264:	00048693          	mv	a3,s1
80001268:	000d8513          	mv	a0,s11
8000126c:	000b0593          	mv	a1,s6
80001270:	002d9a13          	slli	s4,s11,0x2
80001274:	cadff0ef          	jal	80000f20 <matrix_mul_vect>
80001278:	014b0a33          	add	s4,s6,s4
8000127c:	002c9c13          	slli	s8,s9,0x2
80001280:	000a0813          	mv	a6,s4
80001284:	00000513          	li	a0,0
80001288:	00000713          	li	a4,0
8000128c:	00000613          	li	a2,0
80001290:	00000a93          	li	s5,0
80001294:	003c9c93          	slli	s9,s9,0x3
80001298:	010c08b3          	add	a7,s8,a6
8000129c:	00088793          	mv	a5,a7
800012a0:	0140006f          	j	800012b4 <matrix_test+0x1d0>
800012a4:	01051513          	slli	a0,a0,0x10
800012a8:	00478793          	addi	a5,a5,4
800012ac:	41055513          	srai	a0,a0,0x10
800012b0:	03078e63          	beq	a5,a6,800012ec <matrix_test+0x208>
800012b4:	00070693          	mv	a3,a4
800012b8:	0007a703          	lw	a4,0(a5)
800012bc:	01051513          	slli	a0,a0,0x10
800012c0:	01055513          	srli	a0,a0,0x10
800012c4:	00e6a6b3          	slt	a3,a3,a4
800012c8:	00e60633          	add	a2,a2,a4
800012cc:	00a50593          	addi	a1,a0,10
800012d0:	00d50533          	add	a0,a0,a3
800012d4:	fcc958e3          	bge	s2,a2,800012a4 <matrix_test+0x1c0>
800012d8:	01059513          	slli	a0,a1,0x10
800012dc:	00478793          	addi	a5,a5,4
800012e0:	41055513          	srai	a0,a0,0x10
800012e4:	00000613          	li	a2,0
800012e8:	fd0796e3          	bne	a5,a6,800012b4 <matrix_test+0x1d0>
800012ec:	001a8d13          	addi	s10,s5,1
800012f0:	41988833          	sub	a6,a7,s9
800012f4:	01ad8663          	beq	s11,s10,80001300 <matrix_test+0x21c>
800012f8:	000d0a93          	mv	s5,s10
800012fc:	f9dff06f          	j	80001298 <matrix_test+0x1b4>
80001300:	000b8593          	mv	a1,s7
80001304:	3e1000ef          	jal	80001ee4 <crc16>
80001308:	00040613          	mv	a2,s0
8000130c:	00050b93          	mv	s7,a0
80001310:	00048693          	mv	a3,s1
80001314:	000d0513          	mv	a0,s10
80001318:	000b0593          	mv	a1,s6
8000131c:	c5dff0ef          	jal	80000f78 <matrix_mul_matrix>
80001320:	000a0813          	mv	a6,s4
80001324:	00000513          	li	a0,0
80001328:	00000713          	li	a4,0
8000132c:	00000613          	li	a2,0
80001330:	00000313          	li	t1,0
80001334:	018808b3          	add	a7,a6,s8
80001338:	00088793          	mv	a5,a7
8000133c:	0140006f          	j	80001350 <matrix_test+0x26c>
80001340:	01051513          	slli	a0,a0,0x10
80001344:	00478793          	addi	a5,a5,4
80001348:	41055513          	srai	a0,a0,0x10
8000134c:	02f80e63          	beq	a6,a5,80001388 <matrix_test+0x2a4>
80001350:	00070693          	mv	a3,a4
80001354:	0007a703          	lw	a4,0(a5)
80001358:	01051513          	slli	a0,a0,0x10
8000135c:	01055513          	srli	a0,a0,0x10
80001360:	00e6a6b3          	slt	a3,a3,a4
80001364:	00e60633          	add	a2,a2,a4
80001368:	00a50593          	addi	a1,a0,10
8000136c:	00d50533          	add	a0,a0,a3
80001370:	fcc958e3          	bge	s2,a2,80001340 <matrix_test+0x25c>
80001374:	01059513          	slli	a0,a1,0x10
80001378:	00478793          	addi	a5,a5,4
8000137c:	41055513          	srai	a0,a0,0x10
80001380:	00000613          	li	a2,0
80001384:	fcf816e3          	bne	a6,a5,80001350 <matrix_test+0x26c>
80001388:	00130793          	addi	a5,t1,1
8000138c:	41988833          	sub	a6,a7,s9
80001390:	01530663          	beq	t1,s5,8000139c <matrix_test+0x2b8>
80001394:	00078313          	mv	t1,a5
80001398:	f9dff06f          	j	80001334 <matrix_test+0x250>
8000139c:	000b8593          	mv	a1,s7
800013a0:	345000ef          	jal	80001ee4 <crc16>
800013a4:	00050793          	mv	a5,a0
800013a8:	00048693          	mv	a3,s1
800013ac:	00040613          	mv	a2,s0
800013b0:	000d0513          	mv	a0,s10
800013b4:	000b0593          	mv	a1,s6
800013b8:	00078493          	mv	s1,a5
800013bc:	c69ff0ef          	jal	80001024 <matrix_mul_matrix_bitextract>
800013c0:	00000513          	li	a0,0
800013c4:	00000713          	li	a4,0
800013c8:	00000613          	li	a2,0
800013cc:	00000893          	li	a7,0
800013d0:	014c0833          	add	a6,s8,s4
800013d4:	00080793          	mv	a5,a6
800013d8:	0140006f          	j	800013ec <matrix_test+0x308>
800013dc:	01051513          	slli	a0,a0,0x10
800013e0:	00478793          	addi	a5,a5,4
800013e4:	41055513          	srai	a0,a0,0x10
800013e8:	02fa0e63          	beq	s4,a5,80001424 <matrix_test+0x340>
800013ec:	00070693          	mv	a3,a4
800013f0:	0007a703          	lw	a4,0(a5)
800013f4:	01051513          	slli	a0,a0,0x10
800013f8:	01055513          	srli	a0,a0,0x10
800013fc:	00e6a6b3          	slt	a3,a3,a4
80001400:	00e60633          	add	a2,a2,a4
80001404:	00a50593          	addi	a1,a0,10
80001408:	00d50533          	add	a0,a0,a3
8000140c:	fcc958e3          	bge	s2,a2,800013dc <matrix_test+0x2f8>
80001410:	01059513          	slli	a0,a1,0x10
80001414:	00478793          	addi	a5,a5,4
80001418:	41055513          	srai	a0,a0,0x10
8000141c:	00000613          	li	a2,0
80001420:	fcfa16e3          	bne	s4,a5,800013ec <matrix_test+0x308>
80001424:	00188793          	addi	a5,a7,1
80001428:	41980a33          	sub	s4,a6,s9
8000142c:	01588663          	beq	a7,s5,80001438 <matrix_test+0x354>
80001430:	00078893          	mv	a7,a5
80001434:	f9dff06f          	j	800013d0 <matrix_test+0x2ec>
80001438:	00048593          	mv	a1,s1
8000143c:	2a9000ef          	jal	80001ee4 <crc16>
80001440:	001d1d13          	slli	s10,s10,0x1
80001444:	01a40433          	add	s0,s0,s10
80001448:	00000613          	li	a2,0
8000144c:	41a406b3          	sub	a3,s0,s10
80001450:	00068793          	mv	a5,a3
80001454:	0007d703          	lhu	a4,0(a5)
80001458:	00278793          	addi	a5,a5,2
8000145c:	41370733          	sub	a4,a4,s3
80001460:	fee79f23          	sh	a4,-2(a5)
80001464:	fe8798e3          	bne	a5,s0,80001454 <matrix_test+0x370>
80001468:	00160793          	addi	a5,a2,1
8000146c:	41868433          	sub	s0,a3,s8
80001470:	01560663          	beq	a2,s5,8000147c <matrix_test+0x398>
80001474:	00078613          	mv	a2,a5
80001478:	fd5ff06f          	j	8000144c <matrix_test+0x368>
8000147c:	02c12983          	lw	s3,44(sp)
80001480:	02812a03          	lw	s4,40(sp)
80001484:	02412a83          	lw	s5,36(sp)
80001488:	01c12b83          	lw	s7,28(sp)
8000148c:	01812c03          	lw	s8,24(sp)
80001490:	01412c83          	lw	s9,20(sp)
80001494:	01012d03          	lw	s10,16(sp)
80001498:	00c12d83          	lw	s11,12(sp)
8000149c:	03c12083          	lw	ra,60(sp)
800014a0:	03812403          	lw	s0,56(sp)
800014a4:	01051513          	slli	a0,a0,0x10
800014a8:	03412483          	lw	s1,52(sp)
800014ac:	03012903          	lw	s2,48(sp)
800014b0:	02012b03          	lw	s6,32(sp)
800014b4:	41055513          	srai	a0,a0,0x10
800014b8:	04010113          	addi	sp,sp,64
800014bc:	00008067          	ret
800014c0:	00000593          	li	a1,0
800014c4:	221000ef          	jal	80001ee4 <crc16>
800014c8:	00048693          	mv	a3,s1
800014cc:	00040613          	mv	a2,s0
800014d0:	00050913          	mv	s2,a0
800014d4:	000b0593          	mv	a1,s6
800014d8:	00000513          	li	a0,0
800014dc:	a45ff0ef          	jal	80000f20 <matrix_mul_vect>
800014e0:	00090593          	mv	a1,s2
800014e4:	00000513          	li	a0,0
800014e8:	1fd000ef          	jal	80001ee4 <crc16>
800014ec:	00048693          	mv	a3,s1
800014f0:	00040613          	mv	a2,s0
800014f4:	00050913          	mv	s2,a0
800014f8:	000b0593          	mv	a1,s6
800014fc:	00000513          	li	a0,0
80001500:	a79ff0ef          	jal	80000f78 <matrix_mul_matrix>
80001504:	00090593          	mv	a1,s2
80001508:	00000513          	li	a0,0
8000150c:	1d9000ef          	jal	80001ee4 <crc16>
80001510:	00050793          	mv	a5,a0
80001514:	00040613          	mv	a2,s0
80001518:	000b0593          	mv	a1,s6
8000151c:	00048693          	mv	a3,s1
80001520:	00000513          	li	a0,0
80001524:	00078413          	mv	s0,a5
80001528:	afdff0ef          	jal	80001024 <matrix_mul_matrix_bitextract>
8000152c:	00040593          	mv	a1,s0
80001530:	00000513          	li	a0,0
80001534:	1b1000ef          	jal	80001ee4 <crc16>
80001538:	f65ff06f          	j	8000149c <matrix_test+0x3b8>

8000153c <core_bench_matrix>:
8000153c:	ff010113          	addi	sp,sp,-16
80001540:	00812423          	sw	s0,8(sp)
80001544:	00852683          	lw	a3,8(a0)
80001548:	00060413          	mv	s0,a2
8000154c:	00058713          	mv	a4,a1
80001550:	00452603          	lw	a2,4(a0)
80001554:	00c52583          	lw	a1,12(a0)
80001558:	00052503          	lw	a0,0(a0)
8000155c:	00112623          	sw	ra,12(sp)
80001560:	b85ff0ef          	jal	800010e4 <matrix_test>
80001564:	00040593          	mv	a1,s0
80001568:	00812403          	lw	s0,8(sp)
8000156c:	00c12083          	lw	ra,12(sp)
80001570:	01010113          	addi	sp,sp,16
80001574:	1710006f          	j	80001ee4 <crc16>

80001578 <cmp_idx>:
80001578:	00060a63          	beqz	a2,8000158c <cmp_idx+0x14>
8000157c:	00251503          	lh	a0,2(a0)
80001580:	00259783          	lh	a5,2(a1)
80001584:	40f50533          	sub	a0,a0,a5
80001588:	00008067          	ret
8000158c:	00051783          	lh	a5,0(a0)
80001590:	01079713          	slli	a4,a5,0x10
80001594:	01075713          	srli	a4,a4,0x10
80001598:	00875713          	srli	a4,a4,0x8
8000159c:	f007f793          	andi	a5,a5,-256
800015a0:	00e7e7b3          	or	a5,a5,a4
800015a4:	00f51023          	sh	a5,0(a0)
800015a8:	00059783          	lh	a5,0(a1)
800015ac:	00251503          	lh	a0,2(a0)
800015b0:	01079713          	slli	a4,a5,0x10
800015b4:	01075713          	srli	a4,a4,0x10
800015b8:	00875713          	srli	a4,a4,0x8
800015bc:	f007f793          	andi	a5,a5,-256
800015c0:	00e7e7b3          	or	a5,a5,a4
800015c4:	00f59023          	sh	a5,0(a1)
800015c8:	00259783          	lh	a5,2(a1)
800015cc:	40f50533          	sub	a0,a0,a5
800015d0:	00008067          	ret

800015d4 <calc_func>:
800015d4:	fe010113          	addi	sp,sp,-32
800015d8:	00812c23          	sw	s0,24(sp)
800015dc:	00051403          	lh	s0,0(a0)
800015e0:	00112e23          	sw	ra,28(sp)
800015e4:	40745793          	srai	a5,s0,0x7
800015e8:	0017f793          	andi	a5,a5,1
800015ec:	00078c63          	beqz	a5,80001604 <calc_func+0x30>
800015f0:	01c12083          	lw	ra,28(sp)
800015f4:	07f47513          	andi	a0,s0,127
800015f8:	01812403          	lw	s0,24(sp)
800015fc:	02010113          	addi	sp,sp,32
80001600:	00008067          	ret
80001604:	40345713          	srai	a4,s0,0x3
80001608:	00f77713          	andi	a4,a4,15
8000160c:	00471693          	slli	a3,a4,0x4
80001610:	0385d783          	lhu	a5,56(a1)
80001614:	00912a23          	sw	s1,20(sp)
80001618:	01312623          	sw	s3,12(sp)
8000161c:	00058493          	mv	s1,a1
80001620:	01212823          	sw	s2,16(sp)
80001624:	00d705b3          	add	a1,a4,a3
80001628:	00747613          	andi	a2,s0,7
8000162c:	00050993          	mv	s3,a0
80001630:	00058713          	mv	a4,a1
80001634:	08060063          	beqz	a2,800016b4 <calc_func+0xe0>
80001638:	00100693          	li	a3,1
8000163c:	06d61463          	bne	a2,a3,800016a4 <calc_func+0xd0>
80001640:	00078613          	mv	a2,a5
80001644:	02848513          	addi	a0,s1,40
80001648:	ef5ff0ef          	jal	8000153c <core_bench_matrix>
8000164c:	03c4d783          	lhu	a5,60(s1)
80001650:	01051913          	slli	s2,a0,0x10
80001654:	41095913          	srai	s2,s2,0x10
80001658:	08079c63          	bnez	a5,800016f0 <calc_func+0x11c>
8000165c:	0384d783          	lhu	a5,56(s1)
80001660:	02a49e23          	sh	a0,60(s1)
80001664:	00078593          	mv	a1,a5
80001668:	6d4000ef          	jal	80001d3c <crcu16>
8000166c:	00050793          	mv	a5,a0
80001670:	f0047413          	andi	s0,s0,-256
80001674:	07f97513          	andi	a0,s2,127
80001678:	00856433          	or	s0,a0,s0
8000167c:	02f49c23          	sh	a5,56(s1)
80001680:	08046413          	ori	s0,s0,128
80001684:	00899023          	sh	s0,0(s3)
80001688:	01c12083          	lw	ra,28(sp)
8000168c:	01812403          	lw	s0,24(sp)
80001690:	01412483          	lw	s1,20(sp)
80001694:	01012903          	lw	s2,16(sp)
80001698:	00c12983          	lw	s3,12(sp)
8000169c:	02010113          	addi	sp,sp,32
800016a0:	00008067          	ret
800016a4:	01041513          	slli	a0,s0,0x10
800016a8:	01055513          	srli	a0,a0,0x10
800016ac:	00040913          	mv	s2,s0
800016b0:	fb5ff06f          	j	80001664 <calc_func+0x90>
800016b4:	02100693          	li	a3,33
800016b8:	00b6e463          	bltu	a3,a1,800016c0 <calc_func+0xec>
800016bc:	02200713          	li	a4,34
800016c0:	00249683          	lh	a3,2(s1)
800016c4:	00049603          	lh	a2,0(s1)
800016c8:	0144a583          	lw	a1,20(s1)
800016cc:	0184a503          	lw	a0,24(s1)
800016d0:	d5cff0ef          	jal	80000c2c <core_bench_state>
800016d4:	03e4d783          	lhu	a5,62(s1)
800016d8:	01051913          	slli	s2,a0,0x10
800016dc:	41095913          	srai	s2,s2,0x10
800016e0:	00079863          	bnez	a5,800016f0 <calc_func+0x11c>
800016e4:	0384d783          	lhu	a5,56(s1)
800016e8:	02a49f23          	sh	a0,62(s1)
800016ec:	f79ff06f          	j	80001664 <calc_func+0x90>
800016f0:	0384d783          	lhu	a5,56(s1)
800016f4:	f71ff06f          	j	80001664 <calc_func+0x90>

800016f8 <cmp_complex>:
800016f8:	ff010113          	addi	sp,sp,-16
800016fc:	00912223          	sw	s1,4(sp)
80001700:	00058493          	mv	s1,a1
80001704:	00060593          	mv	a1,a2
80001708:	00112623          	sw	ra,12(sp)
8000170c:	00812423          	sw	s0,8(sp)
80001710:	00060413          	mv	s0,a2
80001714:	ec1ff0ef          	jal	800015d4 <calc_func>
80001718:	00050793          	mv	a5,a0
8000171c:	00040593          	mv	a1,s0
80001720:	00048513          	mv	a0,s1
80001724:	00078413          	mv	s0,a5
80001728:	eadff0ef          	jal	800015d4 <calc_func>
8000172c:	00c12083          	lw	ra,12(sp)
80001730:	40a40533          	sub	a0,s0,a0
80001734:	00812403          	lw	s0,8(sp)
80001738:	00412483          	lw	s1,4(sp)
8000173c:	01010113          	addi	sp,sp,16
80001740:	00008067          	ret

80001744 <core_list_mergesort>:
80001744:	fd010113          	addi	sp,sp,-48
80001748:	01312e23          	sw	s3,28(sp)
8000174c:	01512a23          	sw	s5,20(sp)
80001750:	01712623          	sw	s7,12(sp)
80001754:	01812423          	sw	s8,8(sp)
80001758:	01a12023          	sw	s10,0(sp)
8000175c:	02112623          	sw	ra,44(sp)
80001760:	02812423          	sw	s0,40(sp)
80001764:	02912223          	sw	s1,36(sp)
80001768:	03212023          	sw	s2,32(sp)
8000176c:	01412c23          	sw	s4,24(sp)
80001770:	01612823          	sw	s6,16(sp)
80001774:	01912223          	sw	s9,4(sp)
80001778:	00050993          	mv	s3,a0
8000177c:	00058c13          	mv	s8,a1
80001780:	00060b93          	mv	s7,a2
80001784:	00100a93          	li	s5,1
80001788:	00100d13          	li	s10,1
8000178c:	0c098263          	beqz	s3,80001850 <core_list_mergesort+0x10c>
80001790:	00000c93          	li	s9,0
80001794:	00000493          	li	s1,0
80001798:	00000b13          	li	s6,0
8000179c:	001c8c93          	addi	s9,s9,1
800017a0:	00098793          	mv	a5,s3
800017a4:	00000413          	li	s0,0
800017a8:	01545863          	bge	s0,s5,800017b8 <core_list_mergesort+0x74>
800017ac:	0007a783          	lw	a5,0(a5)
800017b0:	00140413          	addi	s0,s0,1
800017b4:	fe079ae3          	bnez	a5,800017a8 <core_list_mergesort+0x64>
800017b8:	00098913          	mv	s2,s3
800017bc:	000a8a13          	mv	s4,s5
800017c0:	00078993          	mv	s3,a5
800017c4:	02805263          	blez	s0,800017e8 <core_list_mergesort+0xa4>
800017c8:	040a1463          	bnez	s4,80001810 <core_list_mergesort+0xcc>
800017cc:	00090793          	mv	a5,s2
800017d0:	00092903          	lw	s2,0(s2)
800017d4:	fff40413          	addi	s0,s0,-1
800017d8:	02048663          	beqz	s1,80001804 <core_list_mergesort+0xc0>
800017dc:	00f4a023          	sw	a5,0(s1)
800017e0:	00078493          	mv	s1,a5
800017e4:	fe8042e3          	bgtz	s0,800017c8 <core_list_mergesort+0x84>
800017e8:	05405863          	blez	s4,80001838 <core_list_mergesort+0xf4>
800017ec:	04098863          	beqz	s3,8000183c <core_list_mergesort+0xf8>
800017f0:	02041263          	bnez	s0,80001814 <core_list_mergesort+0xd0>
800017f4:	00098793          	mv	a5,s3
800017f8:	fffa0a13          	addi	s4,s4,-1
800017fc:	0009a983          	lw	s3,0(s3)
80001800:	fc049ee3          	bnez	s1,800017dc <core_list_mergesort+0x98>
80001804:	00078b13          	mv	s6,a5
80001808:	00078493          	mv	s1,a5
8000180c:	fd9ff06f          	j	800017e4 <core_list_mergesort+0xa0>
80001810:	fa098ee3          	beqz	s3,800017cc <core_list_mergesort+0x88>
80001814:	0049a583          	lw	a1,4(s3)
80001818:	00492503          	lw	a0,4(s2)
8000181c:	000b8613          	mv	a2,s7
80001820:	000c00e7          	jalr	s8
80001824:	faa054e3          	blez	a0,800017cc <core_list_mergesort+0x88>
80001828:	00098793          	mv	a5,s3
8000182c:	fffa0a13          	addi	s4,s4,-1
80001830:	0009a983          	lw	s3,0(s3)
80001834:	fa5ff06f          	j	800017d8 <core_list_mergesort+0x94>
80001838:	f60992e3          	bnez	s3,8000179c <core_list_mergesort+0x58>
8000183c:	0004a023          	sw	zero,0(s1)
80001840:	01ac8c63          	beq	s9,s10,80001858 <core_list_mergesort+0x114>
80001844:	000b0993          	mv	s3,s6
80001848:	001a9a93          	slli	s5,s5,0x1
8000184c:	f40992e3          	bnez	s3,80001790 <core_list_mergesort+0x4c>
80001850:	00002023          	sw	zero,0(zero) # 0 <_entry_offset>
80001854:	00100073          	ebreak
80001858:	02c12083          	lw	ra,44(sp)
8000185c:	02812403          	lw	s0,40(sp)
80001860:	02412483          	lw	s1,36(sp)
80001864:	02012903          	lw	s2,32(sp)
80001868:	01c12983          	lw	s3,28(sp)
8000186c:	01812a03          	lw	s4,24(sp)
80001870:	01412a83          	lw	s5,20(sp)
80001874:	00c12b83          	lw	s7,12(sp)
80001878:	00812c03          	lw	s8,8(sp)
8000187c:	00412c83          	lw	s9,4(sp)
80001880:	00012d03          	lw	s10,0(sp)
80001884:	000b0513          	mv	a0,s6
80001888:	01012b03          	lw	s6,16(sp)
8000188c:	03010113          	addi	sp,sp,48
80001890:	00008067          	ret

80001894 <core_bench_list>:
80001894:	00050613          	mv	a2,a0
80001898:	00451503          	lh	a0,4(a0)
8000189c:	fe010113          	addi	sp,sp,-32
800018a0:	00812c23          	sw	s0,24(sp)
800018a4:	00912a23          	sw	s1,20(sp)
800018a8:	00112e23          	sw	ra,28(sp)
800018ac:	01212823          	sw	s2,16(sp)
800018b0:	01312623          	sw	s3,12(sp)
800018b4:	01412423          	sw	s4,8(sp)
800018b8:	01512223          	sw	s5,4(sp)
800018bc:	02462403          	lw	s0,36(a2)
800018c0:	00058493          	mv	s1,a1
800018c4:	26a05463          	blez	a0,80001b2c <core_bench_list+0x298>
800018c8:	00000893          	li	a7,0
800018cc:	00000e13          	li	t3,0
800018d0:	00000313          	li	t1,0
800018d4:	00000813          	li	a6,0
800018d8:	0ff8fa13          	zext.b	s4,a7
800018dc:	1c04cc63          	bltz	s1,80001ab4 <core_bench_list+0x220>
800018e0:	24040c63          	beqz	s0,80001b38 <core_bench_list+0x2a4>
800018e4:	00040793          	mv	a5,s0
800018e8:	00c0006f          	j	800018f4 <core_bench_list+0x60>
800018ec:	0007a783          	lw	a5,0(a5)
800018f0:	00078863          	beqz	a5,80001900 <core_bench_list+0x6c>
800018f4:	0047a703          	lw	a4,4(a5)
800018f8:	00271703          	lh	a4,2(a4)
800018fc:	fe9718e3          	bne	a4,s1,800018ec <core_bench_list+0x58>
80001900:	00000693          	li	a3,0
80001904:	0080006f          	j	8000190c <core_bench_list+0x78>
80001908:	00070413          	mv	s0,a4
8000190c:	00042703          	lw	a4,0(s0)
80001910:	00d42023          	sw	a3,0(s0)
80001914:	00040693          	mv	a3,s0
80001918:	fe0718e3          	bnez	a4,80001908 <core_bench_list+0x74>
8000191c:	1a078e63          	beqz	a5,80001ad8 <core_bench_list+0x244>
80001920:	0047a703          	lw	a4,4(a5)
80001924:	00071703          	lh	a4,0(a4)
80001928:	00177693          	andi	a3,a4,1
8000192c:	00068c63          	beqz	a3,80001944 <core_bench_list+0xb0>
80001930:	40975713          	srai	a4,a4,0x9
80001934:	00177713          	andi	a4,a4,1
80001938:	00e80733          	add	a4,a6,a4
8000193c:	01071813          	slli	a6,a4,0x10
80001940:	01085813          	srli	a6,a6,0x10
80001944:	0007a703          	lw	a4,0(a5)
80001948:	00070c63          	beqz	a4,80001960 <core_bench_list+0xcc>
8000194c:	00072683          	lw	a3,0(a4)
80001950:	00d7a023          	sw	a3,0(a5)
80001954:	00042783          	lw	a5,0(s0)
80001958:	00f72023          	sw	a5,0(a4)
8000195c:	00e42023          	sw	a4,0(s0)
80001960:	00130313          	addi	t1,t1,1
80001964:	01031313          	slli	t1,t1,0x10
80001968:	01035313          	srli	t1,t1,0x10
8000196c:	0004c863          	bltz	s1,8000197c <core_bench_list+0xe8>
80001970:	00148493          	addi	s1,s1,1
80001974:	01049493          	slli	s1,s1,0x10
80001978:	4104d493          	srai	s1,s1,0x10
8000197c:	00188893          	addi	a7,a7,1
80001980:	01089893          	slli	a7,a7,0x10
80001984:	4108d893          	srai	a7,a7,0x10
80001988:	f51518e3          	bne	a0,a7,800018d8 <core_bench_list+0x44>
8000198c:	00231793          	slli	a5,t1,0x2
80001990:	41c787b3          	sub	a5,a5,t3
80001994:	00f80833          	add	a6,a6,a5
80001998:	01081913          	slli	s2,a6,0x10
8000199c:	01095913          	srli	s2,s2,0x10
800019a0:	00b05c63          	blez	a1,800019b8 <core_bench_list+0x124>
800019a4:	00040513          	mv	a0,s0
800019a8:	00000597          	auipc	a1,0x0
800019ac:	d5058593          	addi	a1,a1,-688 # 800016f8 <cmp_complex>
800019b0:	d95ff0ef          	jal	80001744 <core_list_mergesort>
800019b4:	00050413          	mv	s0,a0
800019b8:	00042783          	lw	a5,0(s0)
800019bc:	00040993          	mv	s3,s0
800019c0:	0007aa83          	lw	s5,0(a5)
800019c4:	0047a703          	lw	a4,4(a5)
800019c8:	004aa603          	lw	a2,4(s5)
800019cc:	000aa683          	lw	a3,0(s5)
800019d0:	00c7a223          	sw	a2,4(a5)
800019d4:	00eaa223          	sw	a4,4(s5)
800019d8:	00d7a023          	sw	a3,0(a5)
800019dc:	000aa023          	sw	zero,0(s5)
800019e0:	0004d863          	bgez	s1,800019f0 <core_bench_list+0x15c>
800019e4:	0c00006f          	j	80001aa4 <core_bench_list+0x210>
800019e8:	0009a983          	lw	s3,0(s3)
800019ec:	10098c63          	beqz	s3,80001b04 <core_bench_list+0x270>
800019f0:	0049a783          	lw	a5,4(s3)
800019f4:	00279783          	lh	a5,2(a5)
800019f8:	fe9798e3          	bne	a5,s1,800019e8 <core_bench_list+0x154>
800019fc:	00442783          	lw	a5,4(s0)
80001a00:	00090593          	mv	a1,s2
80001a04:	00079503          	lh	a0,0(a5)
80001a08:	4dc000ef          	jal	80001ee4 <crc16>
80001a0c:	0009a983          	lw	s3,0(s3)
80001a10:	00050913          	mv	s2,a0
80001a14:	fe0994e3          	bnez	s3,800019fc <core_bench_list+0x168>
80001a18:	00042983          	lw	s3,0(s0)
80001a1c:	004aa703          	lw	a4,4(s5)
80001a20:	0049a683          	lw	a3,4(s3)
80001a24:	0009a783          	lw	a5,0(s3)
80001a28:	00040513          	mv	a0,s0
80001a2c:	00daa223          	sw	a3,4(s5)
80001a30:	00e9a223          	sw	a4,4(s3)
80001a34:	00faa023          	sw	a5,0(s5)
80001a38:	00000613          	li	a2,0
80001a3c:	0159a023          	sw	s5,0(s3)
80001a40:	00000597          	auipc	a1,0x0
80001a44:	b3858593          	addi	a1,a1,-1224 # 80001578 <cmp_idx>
80001a48:	cfdff0ef          	jal	80001744 <core_list_mergesort>
80001a4c:	00052403          	lw	s0,0(a0)
80001a50:	00050493          	mv	s1,a0
80001a54:	02040063          	beqz	s0,80001a74 <core_bench_list+0x1e0>
80001a58:	0044a783          	lw	a5,4(s1)
80001a5c:	00090593          	mv	a1,s2
80001a60:	00079503          	lh	a0,0(a5)
80001a64:	480000ef          	jal	80001ee4 <crc16>
80001a68:	00042403          	lw	s0,0(s0)
80001a6c:	00050913          	mv	s2,a0
80001a70:	fe0414e3          	bnez	s0,80001a58 <core_bench_list+0x1c4>
80001a74:	01c12083          	lw	ra,28(sp)
80001a78:	01812403          	lw	s0,24(sp)
80001a7c:	01412483          	lw	s1,20(sp)
80001a80:	00c12983          	lw	s3,12(sp)
80001a84:	00812a03          	lw	s4,8(sp)
80001a88:	00412a83          	lw	s5,4(sp)
80001a8c:	00090513          	mv	a0,s2
80001a90:	01012903          	lw	s2,16(sp)
80001a94:	02010113          	addi	sp,sp,32
80001a98:	00008067          	ret
80001a9c:	0009a983          	lw	s3,0(s3)
80001aa0:	06098263          	beqz	s3,80001b04 <core_bench_list+0x270>
80001aa4:	0049a783          	lw	a5,4(s3)
80001aa8:	0007c783          	lbu	a5,0(a5)
80001aac:	fefa18e3          	bne	s4,a5,80001a9c <core_bench_list+0x208>
80001ab0:	f4dff06f          	j	800019fc <core_bench_list+0x168>
80001ab4:	08040263          	beqz	s0,80001b38 <core_bench_list+0x2a4>
80001ab8:	00040793          	mv	a5,s0
80001abc:	00c0006f          	j	80001ac8 <core_bench_list+0x234>
80001ac0:	0007a783          	lw	a5,0(a5)
80001ac4:	e2078ee3          	beqz	a5,80001900 <core_bench_list+0x6c>
80001ac8:	0047a703          	lw	a4,4(a5)
80001acc:	00074703          	lbu	a4,0(a4)
80001ad0:	feea18e3          	bne	s4,a4,80001ac0 <core_bench_list+0x22c>
80001ad4:	e2dff06f          	j	80001900 <core_bench_list+0x6c>
80001ad8:	00042783          	lw	a5,0(s0)
80001adc:	001e0e13          	addi	t3,t3,1
80001ae0:	010e1e13          	slli	t3,t3,0x10
80001ae4:	0047a783          	lw	a5,4(a5)
80001ae8:	010e5e13          	srli	t3,t3,0x10
80001aec:	00178783          	lb	a5,1(a5)
80001af0:	0017f793          	andi	a5,a5,1
80001af4:	00f807b3          	add	a5,a6,a5
80001af8:	01079813          	slli	a6,a5,0x10
80001afc:	01085813          	srli	a6,a6,0x10
80001b00:	e6dff06f          	j	8000196c <core_bench_list+0xd8>
80001b04:	00042983          	lw	s3,0(s0)
80001b08:	f0098ce3          	beqz	s3,80001a20 <core_bench_list+0x18c>
80001b0c:	00442783          	lw	a5,4(s0)
80001b10:	00090593          	mv	a1,s2
80001b14:	00079503          	lh	a0,0(a5)
80001b18:	3cc000ef          	jal	80001ee4 <crc16>
80001b1c:	0009a983          	lw	s3,0(s3)
80001b20:	00050913          	mv	s2,a0
80001b24:	ec099ce3          	bnez	s3,800019fc <core_bench_list+0x168>
80001b28:	ef1ff06f          	j	80001a18 <core_bench_list+0x184>
80001b2c:	00000913          	li	s2,0
80001b30:	00000a13          	li	s4,0
80001b34:	e6dff06f          	j	800019a0 <core_bench_list+0x10c>
80001b38:	00002783          	lw	a5,0(zero) # 0 <_entry_offset>
80001b3c:	00100073          	ebreak

80001b40 <core_list_init>:
80001b40:	01400793          	li	a5,20
80001b44:	02f55e33          	divu	t3,a0,a5
80001b48:	ffff87b7          	lui	a5,0xffff8
80001b4c:	0005a023          	sw	zero,0(a1)
80001b50:	08078793          	addi	a5,a5,128 # ffff8080 <_end+0x7ffec080>
80001b54:	01058693          	addi	a3,a1,16
80001b58:	00058513          	mv	a0,a1
80001b5c:	00858313          	addi	t1,a1,8
80001b60:	ffee0e13          	addi	t3,t3,-2
80001b64:	003e1e93          	slli	t4,t3,0x3
80001b68:	01d58eb3          	add	t4,a1,t4
80001b6c:	01d5a223          	sw	t4,4(a1)
80001b70:	002e1f93          	slli	t6,t3,0x2
80001b74:	00fe9023          	sh	a5,0(t4)
80001b78:	000e9123          	sh	zero,2(t4)
80001b7c:	01fe8fb3          	add	t6,t4,t6
80001b80:	004e8793          	addi	a5,t4,4
80001b84:	15d6f063          	bgeu	a3,t4,80001cc4 <core_list_init+0x184>
80001b88:	008e8893          	addi	a7,t4,8
80001b8c:	13f8fc63          	bgeu	a7,t6,80001cc4 <core_list_init+0x184>
80001b90:	00f5a623          	sw	a5,12(a1)
80001b94:	ffff87b7          	lui	a5,0xffff8
80001b98:	0005a423          	sw	zero,8(a1)
80001b9c:	0065a023          	sw	t1,0(a1)
80001ba0:	fff00713          	li	a4,-1
80001ba4:	fff7c793          	not	a5,a5
80001ba8:	00ee9223          	sh	a4,4(t4)
80001bac:	00fe9323          	sh	a5,6(t4)
80001bb0:	060e0a63          	beqz	t3,80001c24 <core_list_init+0xe4>
80001bb4:	01061293          	slli	t0,a2,0x10
80001bb8:	ffff83b7          	lui	t2,0xffff8
80001bbc:	0102d293          	srli	t0,t0,0x10
80001bc0:	00000813          	li	a6,0
80001bc4:	fff3c393          	not	t2,t2
80001bc8:	01081713          	slli	a4,a6,0x10
80001bcc:	01075713          	srli	a4,a4,0x10
80001bd0:	00e2c7b3          	xor	a5,t0,a4
80001bd4:	00379793          	slli	a5,a5,0x3
80001bd8:	00777713          	andi	a4,a4,7
80001bdc:	0787f793          	andi	a5,a5,120
80001be0:	00e7e7b3          	or	a5,a5,a4
80001be4:	00879f13          	slli	t5,a5,0x8
80001be8:	00868713          	addi	a4,a3,8
80001bec:	00180813          	addi	a6,a6,1
80001bf0:	00488593          	addi	a1,a7,4
80001bf4:	01e787b3          	add	a5,a5,t5
80001bf8:	03d77463          	bgeu	a4,t4,80001c20 <core_list_init+0xe0>
80001bfc:	03f5f263          	bgeu	a1,t6,80001c20 <core_list_init+0xe0>
80001c00:	0066a023          	sw	t1,0(a3)
80001c04:	00d52023          	sw	a3,0(a0)
80001c08:	0116a223          	sw	a7,4(a3)
80001c0c:	00f89023          	sh	a5,0(a7)
80001c10:	00789123          	sh	t2,2(a7)
80001c14:	00068313          	mv	t1,a3
80001c18:	00058893          	mv	a7,a1
80001c1c:	00070693          	mv	a3,a4
80001c20:	fb0e14e3          	bne	t3,a6,80001bc8 <core_list_init+0x88>
80001c24:	00032803          	lw	a6,0(t1)
80001c28:	08080663          	beqz	a6,80001cb4 <core_list_init+0x174>
80001c2c:	00500793          	li	a5,5
80001c30:	00004eb7          	lui	t4,0x4
80001c34:	02fe5e33          	divu	t3,t3,a5
80001c38:	20000713          	li	a4,512
80001c3c:	00100693          	li	a3,1
80001c40:	fffe8e93          	addi	t4,t4,-1 # 3fff <_entry_offset+0x3fff>
80001c44:	0300006f          	j	80001c74 <core_list_init+0x134>
80001c48:	01069793          	slli	a5,a3,0x10
80001c4c:	00082883          	lw	a7,0(a6)
80001c50:	4107d793          	srai	a5,a5,0x10
80001c54:	10070713          	addi	a4,a4,256
80001c58:	01071713          	slli	a4,a4,0x10
80001c5c:	00f59123          	sh	a5,2(a1)
80001c60:	00080313          	mv	t1,a6
80001c64:	00168693          	addi	a3,a3,1
80001c68:	01075713          	srli	a4,a4,0x10
80001c6c:	04088463          	beqz	a7,80001cb4 <core_list_init+0x174>
80001c70:	00088813          	mv	a6,a7
80001c74:	00d645b3          	xor	a1,a2,a3
80001c78:	70077793          	andi	a5,a4,1792
80001c7c:	00b7e7b3          	or	a5,a5,a1
80001c80:	01d7f7b3          	and	a5,a5,t4
80001c84:	00432583          	lw	a1,4(t1)
80001c88:	fdc6e0e3          	bltu	a3,t3,80001c48 <core_list_init+0x108>
80001c8c:	00082883          	lw	a7,0(a6)
80001c90:	01079793          	slli	a5,a5,0x10
80001c94:	4107d793          	srai	a5,a5,0x10
80001c98:	10070713          	addi	a4,a4,256
80001c9c:	01071713          	slli	a4,a4,0x10
80001ca0:	00f59123          	sh	a5,2(a1)
80001ca4:	00080313          	mv	t1,a6
80001ca8:	00168693          	addi	a3,a3,1
80001cac:	01075713          	srli	a4,a4,0x10
80001cb0:	fc0890e3          	bnez	a7,80001c70 <core_list_init+0x130>
80001cb4:	00000613          	li	a2,0
80001cb8:	00000597          	auipc	a1,0x0
80001cbc:	8c058593          	addi	a1,a1,-1856 # 80001578 <cmp_idx>
80001cc0:	a85ff06f          	j	80001744 <core_list_mergesort>
80001cc4:	00030693          	mv	a3,t1
80001cc8:	00078893          	mv	a7,a5
80001ccc:	00000313          	li	t1,0
80001cd0:	ee1ff06f          	j	80001bb0 <core_list_init+0x70>

80001cd4 <get_seed_32>:
80001cd4:	00500793          	li	a5,5
80001cd8:	04a7ee63          	bltu	a5,a0,80001d34 <get_seed_32+0x60>
80001cdc:	00001717          	auipc	a4,0x1
80001ce0:	7b070713          	addi	a4,a4,1968 # 8000348c <intpat+0x10>
80001ce4:	00251513          	slli	a0,a0,0x2
80001ce8:	00e50533          	add	a0,a0,a4
80001cec:	00052783          	lw	a5,0(a0)
80001cf0:	00e787b3          	add	a5,a5,a4
80001cf4:	00078067          	jr	a5 # ffff8000 <_end+0x7ffec000>
80001cf8:	00002517          	auipc	a0,0x2
80001cfc:	22852503          	lw	a0,552(a0) # 80003f20 <seed5_volatile>
80001d00:	00008067          	ret
80001d04:	00002517          	auipc	a0,0x2
80001d08:	22452503          	lw	a0,548(a0) # 80003f28 <seed1_volatile>
80001d0c:	00008067          	ret
80001d10:	00002517          	auipc	a0,0x2
80001d14:	21452503          	lw	a0,532(a0) # 80003f24 <seed2_volatile>
80001d18:	00008067          	ret
80001d1c:	00002517          	auipc	a0,0x2
80001d20:	82852503          	lw	a0,-2008(a0) # 80003544 <seed3_volatile>
80001d24:	00008067          	ret
80001d28:	00002517          	auipc	a0,0x2
80001d2c:	81852503          	lw	a0,-2024(a0) # 80003540 <seed4_volatile>
80001d30:	00008067          	ret
80001d34:	00000513          	li	a0,0
80001d38:	00008067          	ret

80001d3c <crcu16>:
80001d3c:	00050693          	mv	a3,a0
80001d40:	ffffa837          	lui	a6,0xffffa
80001d44:	00058513          	mv	a0,a1
80001d48:	0ff6f613          	zext.b	a2,a3
80001d4c:	00800713          	li	a4,8
80001d50:	00180813          	addi	a6,a6,1 # ffffa001 <_end+0x7ffee001>
80001d54:	00a647b3          	xor	a5,a2,a0
80001d58:	0017f793          	andi	a5,a5,1
80001d5c:	40f007b3          	neg	a5,a5
80001d60:	00155513          	srli	a0,a0,0x1
80001d64:	0107f7b3          	and	a5,a5,a6
80001d68:	fff70713          	addi	a4,a4,-1
80001d6c:	00a7c7b3          	xor	a5,a5,a0
80001d70:	01079513          	slli	a0,a5,0x10
80001d74:	0ff77713          	zext.b	a4,a4
80001d78:	00165613          	srli	a2,a2,0x1
80001d7c:	01055513          	srli	a0,a0,0x10
80001d80:	fc071ae3          	bnez	a4,80001d54 <crcu16+0x18>
80001d84:	ffffa637          	lui	a2,0xffffa
80001d88:	0086d693          	srli	a3,a3,0x8
80001d8c:	00800713          	li	a4,8
80001d90:	00160613          	addi	a2,a2,1 # ffffa001 <_end+0x7ffee001>
80001d94:	00a6c7b3          	xor	a5,a3,a0
80001d98:	0017f793          	andi	a5,a5,1
80001d9c:	40f007b3          	neg	a5,a5
80001da0:	00155513          	srli	a0,a0,0x1
80001da4:	00c7f7b3          	and	a5,a5,a2
80001da8:	fff70713          	addi	a4,a4,-1
80001dac:	00a7c7b3          	xor	a5,a5,a0
80001db0:	01079513          	slli	a0,a5,0x10
80001db4:	0ff77713          	zext.b	a4,a4
80001db8:	0016d693          	srli	a3,a3,0x1
80001dbc:	01055513          	srli	a0,a0,0x10
80001dc0:	fc071ae3          	bnez	a4,80001d94 <crcu16+0x58>
80001dc4:	00008067          	ret

80001dc8 <crcu32>:
80001dc8:	00050693          	mv	a3,a0
80001dcc:	ffffa837          	lui	a6,0xffffa
80001dd0:	01069613          	slli	a2,a3,0x10
80001dd4:	00058513          	mv	a0,a1
80001dd8:	01065613          	srli	a2,a2,0x10
80001ddc:	0ff6f593          	zext.b	a1,a3
80001de0:	00800713          	li	a4,8
80001de4:	00180813          	addi	a6,a6,1 # ffffa001 <_end+0x7ffee001>
80001de8:	00a5c7b3          	xor	a5,a1,a0
80001dec:	0017f793          	andi	a5,a5,1
80001df0:	40f007b3          	neg	a5,a5
80001df4:	00155513          	srli	a0,a0,0x1
80001df8:	0107f7b3          	and	a5,a5,a6
80001dfc:	fff70713          	addi	a4,a4,-1
80001e00:	00a7c7b3          	xor	a5,a5,a0
80001e04:	01079513          	slli	a0,a5,0x10
80001e08:	0ff77713          	zext.b	a4,a4
80001e0c:	0015d593          	srli	a1,a1,0x1
80001e10:	01055513          	srli	a0,a0,0x10
80001e14:	fc071ae3          	bnez	a4,80001de8 <crcu32+0x20>
80001e18:	ffffa5b7          	lui	a1,0xffffa
80001e1c:	00865613          	srli	a2,a2,0x8
80001e20:	00800713          	li	a4,8
80001e24:	00158593          	addi	a1,a1,1 # ffffa001 <_end+0x7ffee001>
80001e28:	00a647b3          	xor	a5,a2,a0
80001e2c:	0017f793          	andi	a5,a5,1
80001e30:	40f007b3          	neg	a5,a5
80001e34:	00155513          	srli	a0,a0,0x1
80001e38:	00b7f7b3          	and	a5,a5,a1
80001e3c:	fff70713          	addi	a4,a4,-1
80001e40:	00a7c7b3          	xor	a5,a5,a0
80001e44:	01079513          	slli	a0,a5,0x10
80001e48:	0ff77713          	zext.b	a4,a4
80001e4c:	00165613          	srli	a2,a2,0x1
80001e50:	01055513          	srli	a0,a0,0x10
80001e54:	fc071ae3          	bnez	a4,80001e28 <crcu32+0x60>
80001e58:	0106d613          	srli	a2,a3,0x10
80001e5c:	ffffa5b7          	lui	a1,0xffffa
80001e60:	00060693          	mv	a3,a2
80001e64:	00800713          	li	a4,8
80001e68:	0ff67613          	zext.b	a2,a2
80001e6c:	00158593          	addi	a1,a1,1 # ffffa001 <_end+0x7ffee001>
80001e70:	00a647b3          	xor	a5,a2,a0
80001e74:	0017f793          	andi	a5,a5,1
80001e78:	40f007b3          	neg	a5,a5
80001e7c:	00155513          	srli	a0,a0,0x1
80001e80:	00b7f7b3          	and	a5,a5,a1
80001e84:	fff70713          	addi	a4,a4,-1
80001e88:	00a7c7b3          	xor	a5,a5,a0
80001e8c:	01079513          	slli	a0,a5,0x10
80001e90:	0ff77713          	zext.b	a4,a4
80001e94:	00165613          	srli	a2,a2,0x1
80001e98:	01055513          	srli	a0,a0,0x10
80001e9c:	fc071ae3          	bnez	a4,80001e70 <crcu32+0xa8>
80001ea0:	ffffa637          	lui	a2,0xffffa
80001ea4:	0086d693          	srli	a3,a3,0x8
80001ea8:	00800713          	li	a4,8
80001eac:	00160613          	addi	a2,a2,1 # ffffa001 <_end+0x7ffee001>
80001eb0:	00a6c7b3          	xor	a5,a3,a0
80001eb4:	0017f793          	andi	a5,a5,1
80001eb8:	40f007b3          	neg	a5,a5
80001ebc:	00155513          	srli	a0,a0,0x1
80001ec0:	00c7f7b3          	and	a5,a5,a2
80001ec4:	fff70713          	addi	a4,a4,-1
80001ec8:	00a7c7b3          	xor	a5,a5,a0
80001ecc:	01079513          	slli	a0,a5,0x10
80001ed0:	0ff77713          	zext.b	a4,a4
80001ed4:	0016d693          	srli	a3,a3,0x1
80001ed8:	01055513          	srli	a0,a0,0x10
80001edc:	fc071ae3          	bnez	a4,80001eb0 <crcu32+0xe8>
80001ee0:	00008067          	ret

80001ee4 <crc16>:
80001ee4:	00050693          	mv	a3,a0
80001ee8:	01069613          	slli	a2,a3,0x10
80001eec:	ffffa837          	lui	a6,0xffffa
80001ef0:	00058513          	mv	a0,a1
80001ef4:	01065613          	srli	a2,a2,0x10
80001ef8:	0ff6f693          	zext.b	a3,a3
80001efc:	00800713          	li	a4,8
80001f00:	00180813          	addi	a6,a6,1 # ffffa001 <_end+0x7ffee001>
80001f04:	00a6c7b3          	xor	a5,a3,a0
80001f08:	0017f793          	andi	a5,a5,1
80001f0c:	40f007b3          	neg	a5,a5
80001f10:	00155513          	srli	a0,a0,0x1
80001f14:	0107f7b3          	and	a5,a5,a6
80001f18:	fff70713          	addi	a4,a4,-1
80001f1c:	00a7c7b3          	xor	a5,a5,a0
80001f20:	01079513          	slli	a0,a5,0x10
80001f24:	0ff77713          	zext.b	a4,a4
80001f28:	0016d693          	srli	a3,a3,0x1
80001f2c:	01055513          	srli	a0,a0,0x10
80001f30:	fc071ae3          	bnez	a4,80001f04 <crc16+0x20>
80001f34:	ffffa5b7          	lui	a1,0xffffa
80001f38:	00865693          	srli	a3,a2,0x8
80001f3c:	00800713          	li	a4,8
80001f40:	00158593          	addi	a1,a1,1 # ffffa001 <_end+0x7ffee001>
80001f44:	00a6c7b3          	xor	a5,a3,a0
80001f48:	0017f793          	andi	a5,a5,1
80001f4c:	40f007b3          	neg	a5,a5
80001f50:	00155513          	srli	a0,a0,0x1
80001f54:	00b7f7b3          	and	a5,a5,a1
80001f58:	fff70713          	addi	a4,a4,-1
80001f5c:	00a7c7b3          	xor	a5,a5,a0
80001f60:	01079513          	slli	a0,a5,0x10
80001f64:	0ff77713          	zext.b	a4,a4
80001f68:	0016d693          	srli	a3,a3,0x1
80001f6c:	01055513          	srli	a0,a0,0x10
80001f70:	fc071ae3          	bnez	a4,80001f44 <crc16+0x60>
80001f74:	00008067          	ret

80001f78 <check_data_types>:
80001f78:	00000513          	li	a0,0
80001f7c:	00008067          	ret

80001f80 <start_time>:
80001f80:	fe010113          	addi	sp,sp,-32
80001f84:	00810593          	addi	a1,sp,8
80001f88:	00600513          	li	a0,6
80001f8c:	00112e23          	sw	ra,28(sp)
80001f90:	188000ef          	jal	80002118 <ioe_read>
80001f94:	00812503          	lw	a0,8(sp)
80001f98:	00c12583          	lw	a1,12(sp)
80001f9c:	3e800613          	li	a2,1000
80001fa0:	00000693          	li	a3,0
80001fa4:	5ec000ef          	jal	80002590 <__udivdi3>
80001fa8:	01c12083          	lw	ra,28(sp)
80001fac:	00002797          	auipc	a5,0x2
80001fb0:	f6a7a823          	sw	a0,-144(a5) # 80003f1c <start_time_val>
80001fb4:	02010113          	addi	sp,sp,32
80001fb8:	00008067          	ret

80001fbc <stop_time>:
80001fbc:	fe010113          	addi	sp,sp,-32
80001fc0:	00810593          	addi	a1,sp,8
80001fc4:	00600513          	li	a0,6
80001fc8:	00112e23          	sw	ra,28(sp)
80001fcc:	14c000ef          	jal	80002118 <ioe_read>
80001fd0:	00812503          	lw	a0,8(sp)
80001fd4:	00c12583          	lw	a1,12(sp)
80001fd8:	3e800613          	li	a2,1000
80001fdc:	00000693          	li	a3,0
80001fe0:	5b0000ef          	jal	80002590 <__udivdi3>
80001fe4:	01c12083          	lw	ra,28(sp)
80001fe8:	00002797          	auipc	a5,0x2
80001fec:	f2a7a823          	sw	a0,-208(a5) # 80003f18 <stop_time_val>
80001ff0:	02010113          	addi	sp,sp,32
80001ff4:	00008067          	ret

80001ff8 <get_time>:
80001ff8:	00002517          	auipc	a0,0x2
80001ffc:	f2052503          	lw	a0,-224(a0) # 80003f18 <stop_time_val>
80002000:	00002797          	auipc	a5,0x2
80002004:	f1c7a783          	lw	a5,-228(a5) # 80003f1c <start_time_val>
80002008:	40f50533          	sub	a0,a0,a5
8000200c:	00008067          	ret

80002010 <time_in_secs>:
80002010:	00008067          	ret

80002014 <portable_init>:
80002014:	00100793          	li	a5,1
80002018:	00f50023          	sb	a5,0(a0)
8000201c:	00008067          	ret

80002020 <portable_fini>:
80002020:	00050023          	sb	zero,0(a0)
80002024:	00008067          	ret

80002028 <__am_timer_config>:
80002028:	00100793          	li	a5,1
8000202c:	00f50023          	sb	a5,0(a0)
80002030:	00f500a3          	sb	a5,1(a0)
80002034:	00008067          	ret

80002038 <__am_input_config>:
80002038:	00100793          	li	a5,1
8000203c:	00f50023          	sb	a5,0(a0)
80002040:	00008067          	ret

80002044 <__am_uart_config>:
80002044:	00050023          	sb	zero,0(a0)
80002048:	00008067          	ret

8000204c <__am_net_config>:
8000204c:	00050023          	sb	zero,0(a0)
80002050:	00008067          	ret

80002054 <fail>:
80002054:	ff010113          	addi	sp,sp,-16
80002058:	00812423          	sw	s0,8(sp)
8000205c:	00112623          	sw	ra,12(sp)
80002060:	00001417          	auipc	s0,0x1
80002064:	1c040413          	addi	s0,s0,448 # 80003220 <_etext+0x464>
80002068:	04100513          	li	a0,65
8000206c:	184000ef          	jal	800021f0 <putch>
80002070:	00144503          	lbu	a0,1(s0)
80002074:	00140413          	addi	s0,s0,1
80002078:	fe051ae3          	bnez	a0,8000206c <fail+0x18>
8000207c:	00001417          	auipc	s0,0x1
80002080:	1b040413          	addi	s0,s0,432 # 8000322c <_etext+0x470>
80002084:	06100513          	li	a0,97
80002088:	168000ef          	jal	800021f0 <putch>
8000208c:	00144503          	lbu	a0,1(s0)
80002090:	00140413          	addi	s0,s0,1
80002094:	fe051ae3          	bnez	a0,80002088 <fail+0x34>
80002098:	00001417          	auipc	s0,0x1
8000209c:	1b040413          	addi	s0,s0,432 # 80003248 <_etext+0x48c>
800020a0:	02000513          	li	a0,32
800020a4:	14c000ef          	jal	800021f0 <putch>
800020a8:	00144503          	lbu	a0,1(s0)
800020ac:	00140413          	addi	s0,s0,1
800020b0:	fe051ae3          	bnez	a0,800020a4 <fail+0x50>
800020b4:	00100513          	li	a0,1
800020b8:	144000ef          	jal	800021fc <halt>

800020bc <ioe_init>:
800020bc:	ff010113          	addi	sp,sp,-16
800020c0:	00112623          	sw	ra,12(sp)
800020c4:	00001797          	auipc	a5,0x1
800020c8:	48478793          	addi	a5,a5,1156 # 80003548 <lut>
800020cc:	00001697          	auipc	a3,0x1
800020d0:	67c68693          	addi	a3,a3,1660 # 80003748 <static_memblk>
800020d4:	00000617          	auipc	a2,0x0
800020d8:	f8060613          	addi	a2,a2,-128 # 80002054 <fail>
800020dc:	00c0006f          	j	800020e8 <ioe_init+0x2c>
800020e0:	00478793          	addi	a5,a5,4
800020e4:	00d78c63          	beq	a5,a3,800020fc <ioe_init+0x40>
800020e8:	0007a703          	lw	a4,0(a5)
800020ec:	fe071ae3          	bnez	a4,800020e0 <ioe_init+0x24>
800020f0:	00c7a023          	sw	a2,0(a5)
800020f4:	00478793          	addi	a5,a5,4
800020f8:	fed798e3          	bne	a5,a3,800020e8 <ioe_init+0x2c>
800020fc:	088000ef          	jal	80002184 <__am_gpu_init>
80002100:	034000ef          	jal	80002134 <__am_timer_init>
80002104:	0c0000ef          	jal	800021c4 <__am_audio_init>
80002108:	00c12083          	lw	ra,12(sp)
8000210c:	00100513          	li	a0,1
80002110:	01010113          	addi	sp,sp,16
80002114:	00008067          	ret

80002118 <ioe_read>:
80002118:	00251513          	slli	a0,a0,0x2
8000211c:	00001797          	auipc	a5,0x1
80002120:	42c78793          	addi	a5,a5,1068 # 80003548 <lut>
80002124:	00a787b3          	add	a5,a5,a0
80002128:	0007a783          	lw	a5,0(a5)
8000212c:	00058513          	mv	a0,a1
80002130:	00078067          	jr	a5

80002134 <__am_timer_init>:
80002134:	00008067          	ret

80002138 <__am_timer_uptime>:
80002138:	a0000737          	lui	a4,0xa0000
8000213c:	a00007b7          	lui	a5,0xa0000
80002140:	04870713          	addi	a4,a4,72 # a0000048 <_end+0x1fff4048>
80002144:	04c7a683          	lw	a3,76(a5) # a000004c <_end+0x1fff404c>
80002148:	00072703          	lw	a4,0(a4)
8000214c:	00d52223          	sw	a3,4(a0)
80002150:	00e52023          	sw	a4,0(a0)
80002154:	00008067          	ret

80002158 <__am_timer_rtc>:
80002158:	76c00793          	li	a5,1900
8000215c:	00052a23          	sw	zero,20(a0)
80002160:	00052823          	sw	zero,16(a0)
80002164:	00052623          	sw	zero,12(a0)
80002168:	00052423          	sw	zero,8(a0)
8000216c:	00052223          	sw	zero,4(a0)
80002170:	00f52023          	sw	a5,0(a0)
80002174:	00008067          	ret

80002178 <__am_input_keybrd>:
80002178:	00050023          	sb	zero,0(a0)
8000217c:	00052223          	sw	zero,4(a0)
80002180:	00008067          	ret

80002184 <__am_gpu_init>:
80002184:	00008067          	ret

80002188 <__am_gpu_config>:
80002188:	00100793          	li	a5,1
8000218c:	00f51023          	sh	a5,0(a0)
80002190:	00052223          	sw	zero,4(a0)
80002194:	00052423          	sw	zero,8(a0)
80002198:	00052623          	sw	zero,12(a0)
8000219c:	00008067          	ret

800021a0 <__am_gpu_fbdraw>:
800021a0:	01454783          	lbu	a5,20(a0)
800021a4:	00078863          	beqz	a5,800021b4 <__am_gpu_fbdraw+0x14>
800021a8:	a00007b7          	lui	a5,0xa0000
800021ac:	00100713          	li	a4,1
800021b0:	10e7a223          	sw	a4,260(a5) # a0000104 <_end+0x1fff4104>
800021b4:	00008067          	ret

800021b8 <__am_gpu_status>:
800021b8:	00100793          	li	a5,1
800021bc:	00f50023          	sb	a5,0(a0)
800021c0:	00008067          	ret

800021c4 <__am_audio_init>:
800021c4:	00008067          	ret

800021c8 <__am_audio_config>:
800021c8:	00050023          	sb	zero,0(a0)
800021cc:	00008067          	ret

800021d0 <__am_audio_ctrl>:
800021d0:	00008067          	ret

800021d4 <__am_audio_status>:
800021d4:	00052023          	sw	zero,0(a0)
800021d8:	00008067          	ret

800021dc <__am_audio_play>:
800021dc:	00008067          	ret

800021e0 <__am_disk_config>:
800021e0:	00050023          	sb	zero,0(a0)
800021e4:	00008067          	ret

800021e8 <__am_disk_status>:
800021e8:	00008067          	ret

800021ec <__am_disk_blkio>:
800021ec:	00008067          	ret

800021f0 <putch>:
800021f0:	a00007b7          	lui	a5,0xa0000
800021f4:	3ea78c23          	sb	a0,1016(a5) # a00003f8 <_end+0x1fff43f8>
800021f8:	00008067          	ret

800021fc <halt>:
800021fc:	00050513          	mv	a0,a0
80002200:	00100073          	ebreak
80002204:	0000006f          	j	80002204 <halt+0x8>

80002208 <_trm_init>:
80002208:	ff010113          	addi	sp,sp,-16
8000220c:	00001517          	auipc	a0,0x1
80002210:	29850513          	addi	a0,a0,664 # 800034a4 <mainargs>
80002214:	00112623          	sw	ra,12(sp)
80002218:	e81fd0ef          	jal	80000098 <main>
8000221c:	00050513          	mv	a0,a0
80002220:	00100073          	ebreak
80002224:	0000006f          	j	80002224 <_trm_init+0x1c>

80002228 <__udivmoddi4>:
80002228:	fd010113          	addi	sp,sp,-48
8000222c:	01312e23          	sw	s3,28(sp)
80002230:	01412c23          	sw	s4,24(sp)
80002234:	01612823          	sw	s6,16(sp)
80002238:	01712623          	sw	s7,12(sp)
8000223c:	02112623          	sw	ra,44(sp)
80002240:	00068b13          	mv	s6,a3
80002244:	00050993          	mv	s3,a0
80002248:	00060a13          	mv	s4,a2
8000224c:	00070b93          	mv	s7,a4
80002250:	02059e63          	bnez	a1,8000228c <__udivmoddi4+0x64>
80002254:	1a069263          	bnez	a3,800023f8 <__udivmoddi4+0x1d0>
80002258:	00070863          	beqz	a4,80002268 <__udivmoddi4+0x40>
8000225c:	02c577b3          	remu	a5,a0,a2
80002260:	00072223          	sw	zero,4(a4)
80002264:	00f72023          	sw	a5,0(a4)
80002268:	0349d533          	divu	a0,s3,s4
8000226c:	00000593          	li	a1,0
80002270:	02c12083          	lw	ra,44(sp)
80002274:	01c12983          	lw	s3,28(sp)
80002278:	01812a03          	lw	s4,24(sp)
8000227c:	01012b03          	lw	s6,16(sp)
80002280:	00c12b83          	lw	s7,12(sp)
80002284:	03010113          	addi	sp,sp,48
80002288:	00008067          	ret
8000228c:	02912223          	sw	s1,36(sp)
80002290:	03212023          	sw	s2,32(sp)
80002294:	01512a23          	sw	s5,20(sp)
80002298:	02812423          	sw	s0,40(sp)
8000229c:	00058913          	mv	s2,a1
800022a0:	00058493          	mv	s1,a1
800022a4:	00060a93          	mv	s5,a2
800022a8:	0e061e63          	bnez	a2,800023a4 <__udivmoddi4+0x17c>
800022ac:	1c068063          	beqz	a3,8000246c <__udivmoddi4+0x244>
800022b0:	22050a63          	beqz	a0,800024e4 <__udivmoddi4+0x2bc>
800022b4:	fff68793          	addi	a5,a3,-1
800022b8:	00d7f733          	and	a4,a5,a3
800022bc:	28070263          	beqz	a4,80002540 <__udivmoddi4+0x318>
800022c0:	00068513          	mv	a0,a3
800022c4:	2d4000ef          	jal	80002598 <__clzsi2>
800022c8:	00050413          	mv	s0,a0
800022cc:	00090513          	mv	a0,s2
800022d0:	2c8000ef          	jal	80002598 <__clzsi2>
800022d4:	40a406b3          	sub	a3,s0,a0
800022d8:	01e00793          	li	a5,30
800022dc:	18d7ea63          	bltu	a5,a3,80002470 <__udivmoddi4+0x248>
800022e0:	00168693          	addi	a3,a3,1
800022e4:	02000793          	li	a5,32
800022e8:	40d787b3          	sub	a5,a5,a3
800022ec:	00f91633          	sll	a2,s2,a5
800022f0:	00d9d733          	srl	a4,s3,a3
800022f4:	00d95433          	srl	s0,s2,a3
800022f8:	00f99833          	sll	a6,s3,a5
800022fc:	00e664b3          	or	s1,a2,a4
80002300:	00000713          	li	a4,0
80002304:	01f85793          	srli	a5,a6,0x1f
80002308:	00149593          	slli	a1,s1,0x1
8000230c:	00f5e5b3          	or	a1,a1,a5
80002310:	01f4d493          	srli	s1,s1,0x1f
80002314:	00141793          	slli	a5,s0,0x1
80002318:	0097e7b3          	or	a5,a5,s1
8000231c:	40ba0333          	sub	t1,s4,a1
80002320:	006a3633          	sltu	a2,s4,t1
80002324:	40fb08b3          	sub	a7,s6,a5
80002328:	40c888b3          	sub	a7,a7,a2
8000232c:	00133313          	seqz	t1,t1
80002330:	406888b3          	sub	a7,a7,t1
80002334:	41f8d313          	srai	t1,a7,0x1f
80002338:	014374b3          	and	s1,t1,s4
8000233c:	409584b3          	sub	s1,a1,s1
80002340:	01637333          	and	t1,t1,s6
80002344:	01fad613          	srli	a2,s5,0x1f
80002348:	00181813          	slli	a6,a6,0x1
8000234c:	001a9a93          	slli	s5,s5,0x1
80002350:	0095b5b3          	sltu	a1,a1,s1
80002354:	406787b3          	sub	a5,a5,t1
80002358:	fff68693          	addi	a3,a3,-1
8000235c:	00eaeab3          	or	s5,s5,a4
80002360:	00c86833          	or	a6,a6,a2
80002364:	01f8d713          	srli	a4,a7,0x1f
80002368:	40b78433          	sub	s0,a5,a1
8000236c:	f8069ce3          	bnez	a3,80002304 <__udivmoddi4+0xdc>
80002370:	000b8663          	beqz	s7,8000237c <__udivmoddi4+0x154>
80002374:	009ba023          	sw	s1,0(s7)
80002378:	008ba223          	sw	s0,4(s7)
8000237c:	01fad913          	srli	s2,s5,0x1f
80002380:	001a9993          	slli	s3,s5,0x1
80002384:	00181793          	slli	a5,a6,0x1
80002388:	00f965b3          	or	a1,s2,a5
8000238c:	02812403          	lw	s0,40(sp)
80002390:	02412483          	lw	s1,36(sp)
80002394:	02012903          	lw	s2,32(sp)
80002398:	01412a83          	lw	s5,20(sp)
8000239c:	00e9e533          	or	a0,s3,a4
800023a0:	ed1ff06f          	j	80002270 <__udivmoddi4+0x48>
800023a4:	06068663          	beqz	a3,80002410 <__udivmoddi4+0x1e8>
800023a8:	00068513          	mv	a0,a3
800023ac:	1ec000ef          	jal	80002598 <__clzsi2>
800023b0:	00050413          	mv	s0,a0
800023b4:	00090513          	mv	a0,s2
800023b8:	1e0000ef          	jal	80002598 <__clzsi2>
800023bc:	40a406b3          	sub	a3,s0,a0
800023c0:	01f00793          	li	a5,31
800023c4:	0ad7e663          	bltu	a5,a3,80002470 <__udivmoddi4+0x248>
800023c8:	00168693          	addi	a3,a3,1
800023cc:	02000793          	li	a5,32
800023d0:	00098813          	mv	a6,s3
800023d4:	18f68663          	beq	a3,a5,80002560 <__udivmoddi4+0x338>
800023d8:	40d787b3          	sub	a5,a5,a3
800023dc:	00d9d733          	srl	a4,s3,a3
800023e0:	00f91633          	sll	a2,s2,a5
800023e4:	00d95433          	srl	s0,s2,a3
800023e8:	00f99833          	sll	a6,s3,a5
800023ec:	00e664b3          	or	s1,a2,a4
800023f0:	00000a93          	li	s5,0
800023f4:	f0dff06f          	j	80002300 <__udivmoddi4+0xd8>
800023f8:	00070663          	beqz	a4,80002404 <__udivmoddi4+0x1dc>
800023fc:	00aba023          	sw	a0,0(s7)
80002400:	00072223          	sw	zero,4(a4)
80002404:	00000513          	li	a0,0
80002408:	00000593          	li	a1,0
8000240c:	e65ff06f          	j	80002270 <__udivmoddi4+0x48>
80002410:	fff60793          	addi	a5,a2,-1
80002414:	00c7f733          	and	a4,a5,a2
80002418:	06071c63          	bnez	a4,80002490 <__udivmoddi4+0x268>
8000241c:	000b8863          	beqz	s7,8000242c <__udivmoddi4+0x204>
80002420:	00a7f7b3          	and	a5,a5,a0
80002424:	00fba023          	sw	a5,0(s7)
80002428:	000ba223          	sw	zero,4(s7)
8000242c:	00100793          	li	a5,1
80002430:	0efa0063          	beq	s4,a5,80002510 <__udivmoddi4+0x2e8>
80002434:	000a0513          	mv	a0,s4
80002438:	1f0000ef          	jal	80002628 <__ctzsi2>
8000243c:	02000713          	li	a4,32
80002440:	40a70733          	sub	a4,a4,a0
80002444:	00050793          	mv	a5,a0
80002448:	00e91733          	sll	a4,s2,a4
8000244c:	00a9d833          	srl	a6,s3,a0
80002450:	00f955b3          	srl	a1,s2,a5
80002454:	02812403          	lw	s0,40(sp)
80002458:	02412483          	lw	s1,36(sp)
8000245c:	02012903          	lw	s2,32(sp)
80002460:	01412a83          	lw	s5,20(sp)
80002464:	01076533          	or	a0,a4,a6
80002468:	e09ff06f          	j	80002270 <__udivmoddi4+0x48>
8000246c:	00100073          	ebreak
80002470:	0a0b8e63          	beqz	s7,8000252c <__udivmoddi4+0x304>
80002474:	012ba223          	sw	s2,4(s7)
80002478:	02812403          	lw	s0,40(sp)
8000247c:	02412483          	lw	s1,36(sp)
80002480:	02012903          	lw	s2,32(sp)
80002484:	01412a83          	lw	s5,20(sp)
80002488:	013ba023          	sw	s3,0(s7)
8000248c:	f79ff06f          	j	80002404 <__udivmoddi4+0x1dc>
80002490:	00060513          	mv	a0,a2
80002494:	00068413          	mv	s0,a3
80002498:	100000ef          	jal	80002598 <__clzsi2>
8000249c:	00050913          	mv	s2,a0
800024a0:	00048513          	mv	a0,s1
800024a4:	0f4000ef          	jal	80002598 <__clzsi2>
800024a8:	40a90533          	sub	a0,s2,a0
800024ac:	02150693          	addi	a3,a0,33
800024b0:	02000793          	li	a5,32
800024b4:	00098813          	mv	a6,s3
800024b8:	00000a93          	li	s5,0
800024bc:	e4f682e3          	beq	a3,a5,80002300 <__udivmoddi4+0xd8>
800024c0:	01f00713          	li	a4,31
800024c4:	0ad76463          	bltu	a4,a3,8000256c <__udivmoddi4+0x344>
800024c8:	40d78733          	sub	a4,a5,a3
800024cc:	00d4d433          	srl	s0,s1,a3
800024d0:	00d9d7b3          	srl	a5,s3,a3
800024d4:	00e494b3          	sll	s1,s1,a4
800024d8:	00f4e4b3          	or	s1,s1,a5
800024dc:	00e99833          	sll	a6,s3,a4
800024e0:	e21ff06f          	j	80002300 <__udivmoddi4+0xd8>
800024e4:	00070863          	beqz	a4,800024f4 <__udivmoddi4+0x2cc>
800024e8:	02d5f7b3          	remu	a5,a1,a3
800024ec:	00072023          	sw	zero,0(a4)
800024f0:	00f72223          	sw	a5,4(a4)
800024f4:	03695533          	divu	a0,s2,s6
800024f8:	02812403          	lw	s0,40(sp)
800024fc:	02412483          	lw	s1,36(sp)
80002500:	02012903          	lw	s2,32(sp)
80002504:	01412a83          	lw	s5,20(sp)
80002508:	00000593          	li	a1,0
8000250c:	d65ff06f          	j	80002270 <__udivmoddi4+0x48>
80002510:	00090593          	mv	a1,s2
80002514:	02812403          	lw	s0,40(sp)
80002518:	02412483          	lw	s1,36(sp)
8000251c:	02012903          	lw	s2,32(sp)
80002520:	01412a83          	lw	s5,20(sp)
80002524:	00098513          	mv	a0,s3
80002528:	d49ff06f          	j	80002270 <__udivmoddi4+0x48>
8000252c:	02812403          	lw	s0,40(sp)
80002530:	02412483          	lw	s1,36(sp)
80002534:	02012903          	lw	s2,32(sp)
80002538:	01412a83          	lw	s5,20(sp)
8000253c:	ec9ff06f          	j	80002404 <__udivmoddi4+0x1dc>
80002540:	000b8863          	beqz	s7,80002550 <__udivmoddi4+0x328>
80002544:	00b7f7b3          	and	a5,a5,a1
80002548:	00aba023          	sw	a0,0(s7)
8000254c:	00fba223          	sw	a5,4(s7)
80002550:	000b0513          	mv	a0,s6
80002554:	0d4000ef          	jal	80002628 <__ctzsi2>
80002558:	00a95533          	srl	a0,s2,a0
8000255c:	f9dff06f          	j	800024f8 <__udivmoddi4+0x2d0>
80002560:	00000413          	li	s0,0
80002564:	00000a93          	li	s5,0
80002568:	d99ff06f          	j	80002300 <__udivmoddi4+0xd8>
8000256c:	04000a93          	li	s5,64
80002570:	40da8ab3          	sub	s5,s5,a3
80002574:	00150513          	addi	a0,a0,1
80002578:	01549733          	sll	a4,s1,s5
8000257c:	00a9d7b3          	srl	a5,s3,a0
80002580:	01599ab3          	sll	s5,s3,s5
80002584:	00a4d4b3          	srl	s1,s1,a0
80002588:	00f76833          	or	a6,a4,a5
8000258c:	d75ff06f          	j	80002300 <__udivmoddi4+0xd8>

80002590 <__udivdi3>:
80002590:	00000713          	li	a4,0
80002594:	c95ff06f          	j	80002228 <__udivmoddi4>

80002598 <__clzsi2>:
80002598:	000105b7          	lui	a1,0x10
8000259c:	00b535b3          	sltu	a1,a0,a1
800025a0:	00459593          	slli	a1,a1,0x4
800025a4:	01000793          	li	a5,16
800025a8:	40b787b3          	sub	a5,a5,a1
800025ac:	00010737          	lui	a4,0x10
800025b0:	00f557b3          	srl	a5,a0,a5
800025b4:	f0070713          	addi	a4,a4,-256 # ff00 <_entry_offset+0xff00>
800025b8:	00e7f733          	and	a4,a5,a4
800025bc:	00173713          	seqz	a4,a4
800025c0:	00371713          	slli	a4,a4,0x3
800025c4:	00800693          	li	a3,8
800025c8:	40e686b3          	sub	a3,a3,a4
800025cc:	00d7d7b3          	srl	a5,a5,a3
800025d0:	0f07f613          	andi	a2,a5,240
800025d4:	00163613          	seqz	a2,a2
800025d8:	00261613          	slli	a2,a2,0x2
800025dc:	00400693          	li	a3,4
800025e0:	40c686b3          	sub	a3,a3,a2
800025e4:	00d7d7b3          	srl	a5,a5,a3
800025e8:	00c7f693          	andi	a3,a5,12
800025ec:	0016b693          	seqz	a3,a3
800025f0:	00200513          	li	a0,2
800025f4:	00169693          	slli	a3,a3,0x1
800025f8:	40d50833          	sub	a6,a0,a3
800025fc:	0107d7b3          	srl	a5,a5,a6
80002600:	0017d813          	srli	a6,a5,0x1
80002604:	00b70733          	add	a4,a4,a1
80002608:	00187593          	andi	a1,a6,1
8000260c:	00e60633          	add	a2,a2,a4
80002610:	40f50533          	sub	a0,a0,a5
80002614:	00058463          	beqz	a1,8000261c <__clzsi2+0x84>
80002618:	00000513          	li	a0,0
8000261c:	00c686b3          	add	a3,a3,a2
80002620:	00d50533          	add	a0,a0,a3
80002624:	00008067          	ret

80002628 <__ctzsi2>:
80002628:	01051593          	slli	a1,a0,0x10
8000262c:	0105d593          	srli	a1,a1,0x10
80002630:	0015b593          	seqz	a1,a1
80002634:	00459593          	slli	a1,a1,0x4
80002638:	00b557b3          	srl	a5,a0,a1
8000263c:	0ff7f613          	zext.b	a2,a5
80002640:	00163613          	seqz	a2,a2
80002644:	00361613          	slli	a2,a2,0x3
80002648:	00c7d7b3          	srl	a5,a5,a2
8000264c:	00f7f693          	andi	a3,a5,15
80002650:	0016b693          	seqz	a3,a3
80002654:	00269693          	slli	a3,a3,0x2
80002658:	00d7d7b3          	srl	a5,a5,a3
8000265c:	0037f713          	andi	a4,a5,3
80002660:	00173713          	seqz	a4,a4
80002664:	00171713          	slli	a4,a4,0x1
80002668:	00e7d7b3          	srl	a5,a5,a4
8000266c:	0017d513          	srli	a0,a5,0x1
80002670:	fff7c793          	not	a5,a5
80002674:	00b60633          	add	a2,a2,a1
80002678:	0017f793          	andi	a5,a5,1
8000267c:	00157593          	andi	a1,a0,1
80002680:	00200513          	li	a0,2
80002684:	00c686b3          	add	a3,a3,a2
80002688:	40b50533          	sub	a0,a0,a1
8000268c:	40f007b3          	neg	a5,a5
80002690:	00f57533          	and	a0,a0,a5
80002694:	00d70733          	add	a4,a4,a3
80002698:	00e50533          	add	a0,a0,a4
8000269c:	00008067          	ret

800026a0 <printf>:
800026a0:	e9010113          	addi	sp,sp,-368
800026a4:	13312e23          	sw	s3,316(sp)
800026a8:	01010993          	addi	s3,sp,16
800026ac:	14812423          	sw	s0,328(sp)
800026b0:	16e12023          	sw	a4,352(sp)
800026b4:	16f12223          	sw	a5,356(sp)
800026b8:	14112623          	sw	ra,332(sp)
800026bc:	14912223          	sw	s1,324(sp)
800026c0:	00050413          	mv	s0,a0
800026c4:	14b12a23          	sw	a1,340(sp)
800026c8:	14c12c23          	sw	a2,344(sp)
800026cc:	14d12e23          	sw	a3,348(sp)
800026d0:	17012423          	sw	a6,360(sp)
800026d4:	17112623          	sw	a7,364(sp)
800026d8:	00098793          	mv	a5,s3
800026dc:	11010713          	addi	a4,sp,272
800026e0:	0007a023          	sw	zero,0(a5)
800026e4:	00478793          	addi	a5,a5,4
800026e8:	fef71ce3          	bne	a4,a5,800026e0 <printf+0x40>
800026ec:	00044783          	lbu	a5,0(s0)
800026f0:	15410713          	addi	a4,sp,340
800026f4:	00e12623          	sw	a4,12(sp)
800026f8:	36078863          	beqz	a5,80002a68 <printf+0x3c8>
800026fc:	13412c23          	sw	s4,312(sp)
80002700:	13512a23          	sw	s5,308(sp)
80002704:	13612823          	sw	s6,304(sp)
80002708:	13712623          	sw	s7,300(sp)
8000270c:	13812423          	sw	s8,296(sp)
80002710:	13912223          	sw	s9,292(sp)
80002714:	15212023          	sw	s2,320(sp)
80002718:	13a12023          	sw	s10,288(sp)
8000271c:	11b12e23          	sw	s11,284(sp)
80002720:	00098493          	mv	s1,s3
80002724:	02500c93          	li	s9,37
80002728:	07800a13          	li	s4,120
8000272c:	06200a93          	li	s5,98
80002730:	06400c13          	li	s8,100
80002734:	01500b93          	li	s7,21
80002738:	00001b17          	auipc	s6,0x1
8000273c:	dacb0b13          	addi	s6,s6,-596 # 800034e4 <mainargs+0x40>
80002740:	01c0006f          	j	8000275c <printf+0xbc>
80002744:	00f48023          	sb	a5,0(s1)
80002748:	00040913          	mv	s2,s0
8000274c:	00148493          	addi	s1,s1,1
80002750:	00194783          	lbu	a5,1(s2)
80002754:	00190413          	addi	s0,s2,1
80002758:	08078e63          	beqz	a5,800027f4 <printf+0x154>
8000275c:	00144703          	lbu	a4,1(s0)
80002760:	00140913          	addi	s2,s0,1
80002764:	ff9790e3          	bne	a5,s9,80002744 <printf+0xa4>
80002768:	38ea6463          	bltu	s4,a4,80002af0 <printf+0x450>
8000276c:	16eaf863          	bgeu	s5,a4,800028dc <printf+0x23c>
80002770:	f9d70793          	addi	a5,a4,-99
80002774:	0ff7f793          	zext.b	a5,a5
80002778:	00fbec63          	bltu	s7,a5,80002790 <printf+0xf0>
8000277c:	00279793          	slli	a5,a5,0x2
80002780:	016787b3          	add	a5,a5,s6
80002784:	0007a783          	lw	a5,0(a5)
80002788:	016787b3          	add	a5,a5,s6
8000278c:	00078067          	jr	a5
80002790:	fd070d13          	addi	s10,a4,-48
80002794:	0ffd7713          	zext.b	a4,s10
80002798:	00900793          	li	a5,9
8000279c:	34e7ea63          	bltu	a5,a4,80002af0 <printf+0x450>
800027a0:	00c12783          	lw	a5,12(sp)
800027a4:	00244703          	lbu	a4,2(s0)
800027a8:	00240913          	addi	s2,s0,2
800027ac:	00478613          	addi	a2,a5,4
800027b0:	00c12623          	sw	a2,12(sp)
800027b4:	0007ad83          	lw	s11,0(a5)
800027b8:	1d470c63          	beq	a4,s4,80002990 <printf+0x2f0>
800027bc:	2b871c63          	bne	a4,s8,80002a74 <printf+0x3d4>
800027c0:	00a00613          	li	a2,10
800027c4:	00048593          	mv	a1,s1
800027c8:	000d8513          	mv	a0,s11
800027cc:	48c000ef          	jal	80002c58 <itoa>
800027d0:	21a54e63          	blt	a0,s10,800029ec <printf+0x34c>
800027d4:	00048593          	mv	a1,s1
800027d8:	00a00613          	li	a2,10
800027dc:	000d8513          	mv	a0,s11
800027e0:	478000ef          	jal	80002c58 <itoa>
800027e4:	00194783          	lbu	a5,1(s2)
800027e8:	00a484b3          	add	s1,s1,a0
800027ec:	00190413          	addi	s0,s2,1
800027f0:	f60796e3          	bnez	a5,8000275c <printf+0xbc>
800027f4:	14012903          	lw	s2,320(sp)
800027f8:	13812a03          	lw	s4,312(sp)
800027fc:	13412a83          	lw	s5,308(sp)
80002800:	13012b03          	lw	s6,304(sp)
80002804:	12c12b83          	lw	s7,300(sp)
80002808:	12812c03          	lw	s8,296(sp)
8000280c:	12412c83          	lw	s9,292(sp)
80002810:	12012d03          	lw	s10,288(sp)
80002814:	11c12d83          	lw	s11,284(sp)
80002818:	41348433          	sub	s0,s1,s3
8000281c:	00048023          	sb	zero,0(s1)
80002820:	01014503          	lbu	a0,16(sp)
80002824:	00050a63          	beqz	a0,80002838 <printf+0x198>
80002828:	9c9ff0ef          	jal	800021f0 <putch>
8000282c:	0019c503          	lbu	a0,1(s3)
80002830:	00198993          	addi	s3,s3,1
80002834:	fe051ae3          	bnez	a0,80002828 <printf+0x188>
80002838:	14c12083          	lw	ra,332(sp)
8000283c:	00040513          	mv	a0,s0
80002840:	14812403          	lw	s0,328(sp)
80002844:	14412483          	lw	s1,324(sp)
80002848:	13c12983          	lw	s3,316(sp)
8000284c:	17010113          	addi	sp,sp,368
80002850:	00008067          	ret
80002854:	00244783          	lbu	a5,2(s0)
80002858:	00240913          	addi	s2,s0,2
8000285c:	03878863          	beq	a5,s8,8000288c <printf+0x1ec>
80002860:	07800713          	li	a4,120
80002864:	36e79e63          	bne	a5,a4,80002be0 <printf+0x540>
80002868:	00c12783          	lw	a5,12(sp)
8000286c:	01000613          	li	a2,16
80002870:	0007a503          	lw	a0,0(a5)
80002874:	00048593          	mv	a1,s1
80002878:	00478793          	addi	a5,a5,4
8000287c:	00f12623          	sw	a5,12(sp)
80002880:	3d8000ef          	jal	80002c58 <itoa>
80002884:	00a484b3          	add	s1,s1,a0
80002888:	ec9ff06f          	j	80002750 <printf+0xb0>
8000288c:	00c12783          	lw	a5,12(sp)
80002890:	00a00613          	li	a2,10
80002894:	fddff06f          	j	80002870 <printf+0x1d0>
80002898:	00c12783          	lw	a5,12(sp)
8000289c:	00148493          	addi	s1,s1,1
800028a0:	0007a703          	lw	a4,0(a5)
800028a4:	00478793          	addi	a5,a5,4
800028a8:	00f12623          	sw	a5,12(sp)
800028ac:	fee48fa3          	sb	a4,-1(s1)
800028b0:	ea1ff06f          	j	80002750 <printf+0xb0>
800028b4:	00c12783          	lw	a5,12(sp)
800028b8:	00048513          	mv	a0,s1
800028bc:	0007a583          	lw	a1,0(a5)
800028c0:	00478793          	addi	a5,a5,4
800028c4:	00f12623          	sw	a5,12(sp)
800028c8:	4c4000ef          	jal	80002d8c <strcpy>
800028cc:	00048513          	mv	a0,s1
800028d0:	488000ef          	jal	80002d58 <strlen>
800028d4:	00a484b3          	add	s1,s1,a0
800028d8:	e79ff06f          	j	80002750 <printf+0xb0>
800028dc:	06f70e63          	beq	a4,a5,80002958 <printf+0x2b8>
800028e0:	03000793          	li	a5,48
800028e4:	eaf716e3          	bne	a4,a5,80002790 <printf+0xf0>
800028e8:	00c12783          	lw	a5,12(sp)
800028ec:	00244d03          	lbu	s10,2(s0)
800028f0:	00344703          	lbu	a4,3(s0)
800028f4:	00478613          	addi	a2,a5,4
800028f8:	00c12623          	sw	a2,12(sp)
800028fc:	0007ad83          	lw	s11,0(a5)
80002900:	fd0d0d13          	addi	s10,s10,-48
80002904:	00340913          	addi	s2,s0,3
80002908:	05470e63          	beq	a4,s4,80002964 <printf+0x2c4>
8000290c:	25871e63          	bne	a4,s8,80002b68 <printf+0x4c8>
80002910:	00a00613          	li	a2,10
80002914:	00048593          	mv	a1,s1
80002918:	000d8513          	mv	a0,s11
8000291c:	33c000ef          	jal	80002c58 <itoa>
80002920:	eba55ae3          	bge	a0,s10,800027d4 <printf+0x134>
80002924:	00000413          	li	s0,0
80002928:	0140006f          	j	8000293c <printf+0x29c>
8000292c:	03000793          	li	a5,48
80002930:	00f48023          	sb	a5,0(s1)
80002934:	00140413          	addi	s0,s0,1
80002938:	00148493          	addi	s1,s1,1
8000293c:	00a00613          	li	a2,10
80002940:	00048593          	mv	a1,s1
80002944:	000d8513          	mv	a0,s11
80002948:	310000ef          	jal	80002c58 <itoa>
8000294c:	40ad0533          	sub	a0,s10,a0
80002950:	fca44ee3          	blt	s0,a0,8000292c <printf+0x28c>
80002954:	e81ff06f          	j	800027d4 <printf+0x134>
80002958:	01948023          	sb	s9,0(s1)
8000295c:	00148493          	addi	s1,s1,1
80002960:	df1ff06f          	j	80002750 <printf+0xb0>
80002964:	01000613          	li	a2,16
80002968:	00048593          	mv	a1,s1
8000296c:	000d8513          	mv	a0,s11
80002970:	2e8000ef          	jal	80002c58 <itoa>
80002974:	0ba54663          	blt	a0,s10,80002a20 <printf+0x380>
80002978:	00048593          	mv	a1,s1
8000297c:	01000613          	li	a2,16
80002980:	000d8513          	mv	a0,s11
80002984:	2d4000ef          	jal	80002c58 <itoa>
80002988:	00a484b3          	add	s1,s1,a0
8000298c:	dc5ff06f          	j	80002750 <printf+0xb0>
80002990:	01000613          	li	a2,16
80002994:	00048593          	mv	a1,s1
80002998:	000d8513          	mv	a0,s11
8000299c:	2bc000ef          	jal	80002c58 <itoa>
800029a0:	fda55ce3          	bge	a0,s10,80002978 <printf+0x2d8>
800029a4:	00000413          	li	s0,0
800029a8:	0140006f          	j	800029bc <printf+0x31c>
800029ac:	02000793          	li	a5,32
800029b0:	00f48023          	sb	a5,0(s1)
800029b4:	00140413          	addi	s0,s0,1
800029b8:	00148493          	addi	s1,s1,1
800029bc:	01000613          	li	a2,16
800029c0:	00048593          	mv	a1,s1
800029c4:	000d8513          	mv	a0,s11
800029c8:	290000ef          	jal	80002c58 <itoa>
800029cc:	40ad07b3          	sub	a5,s10,a0
800029d0:	fcf44ee3          	blt	s0,a5,800029ac <printf+0x30c>
800029d4:	00048593          	mv	a1,s1
800029d8:	01000613          	li	a2,16
800029dc:	000d8513          	mv	a0,s11
800029e0:	278000ef          	jal	80002c58 <itoa>
800029e4:	00a484b3          	add	s1,s1,a0
800029e8:	d69ff06f          	j	80002750 <printf+0xb0>
800029ec:	00000413          	li	s0,0
800029f0:	0140006f          	j	80002a04 <printf+0x364>
800029f4:	02000793          	li	a5,32
800029f8:	00f48023          	sb	a5,0(s1)
800029fc:	00140413          	addi	s0,s0,1
80002a00:	00148493          	addi	s1,s1,1
80002a04:	00a00613          	li	a2,10
80002a08:	00048593          	mv	a1,s1
80002a0c:	000d8513          	mv	a0,s11
80002a10:	248000ef          	jal	80002c58 <itoa>
80002a14:	40ad0533          	sub	a0,s10,a0
80002a18:	fca44ee3          	blt	s0,a0,800029f4 <printf+0x354>
80002a1c:	db9ff06f          	j	800027d4 <printf+0x134>
80002a20:	00000413          	li	s0,0
80002a24:	0140006f          	j	80002a38 <printf+0x398>
80002a28:	03000793          	li	a5,48
80002a2c:	00f48023          	sb	a5,0(s1)
80002a30:	00140413          	addi	s0,s0,1
80002a34:	00148493          	addi	s1,s1,1
80002a38:	01000613          	li	a2,16
80002a3c:	00048593          	mv	a1,s1
80002a40:	000d8513          	mv	a0,s11
80002a44:	214000ef          	jal	80002c58 <itoa>
80002a48:	40ad07b3          	sub	a5,s10,a0
80002a4c:	fcf44ee3          	blt	s0,a5,80002a28 <printf+0x388>
80002a50:	00048593          	mv	a1,s1
80002a54:	01000613          	li	a2,16
80002a58:	000d8513          	mv	a0,s11
80002a5c:	1fc000ef          	jal	80002c58 <itoa>
80002a60:	00a484b3          	add	s1,s1,a0
80002a64:	cedff06f          	j	80002750 <printf+0xb0>
80002a68:	00000413          	li	s0,0
80002a6c:	00098493          	mv	s1,s3
80002a70:	dadff06f          	j	8000281c <printf+0x17c>
80002a74:	06500513          	li	a0,101
80002a78:	f78ff0ef          	jal	800021f0 <putch>
80002a7c:	00a00513          	li	a0,10
80002a80:	f70ff0ef          	jal	800021f0 <putch>
80002a84:	00244503          	lbu	a0,2(s0)
80002a88:	00000417          	auipc	s0,0x0
80002a8c:	79840413          	addi	s0,s0,1944 # 80003220 <_etext+0x464>
80002a90:	f60ff0ef          	jal	800021f0 <putch>
80002a94:	00a00513          	li	a0,10
80002a98:	f58ff0ef          	jal	800021f0 <putch>
80002a9c:	04100513          	li	a0,65
80002aa0:	f50ff0ef          	jal	800021f0 <putch>
80002aa4:	00144503          	lbu	a0,1(s0)
80002aa8:	00140413          	addi	s0,s0,1
80002aac:	fe051ae3          	bnez	a0,80002aa0 <printf+0x400>
80002ab0:	00001417          	auipc	s0,0x1
80002ab4:	8ac40413          	addi	s0,s0,-1876 # 8000335c <_etext+0x5a0>
80002ab8:	00a00513          	li	a0,10
80002abc:	f34ff0ef          	jal	800021f0 <putch>
80002ac0:	00144503          	lbu	a0,1(s0)
80002ac4:	00140413          	addi	s0,s0,1
80002ac8:	fe051ae3          	bnez	a0,80002abc <printf+0x41c>
80002acc:	00001417          	auipc	s0,0x1
80002ad0:	8a440413          	addi	s0,s0,-1884 # 80003370 <_etext+0x5b4>
80002ad4:	02000513          	li	a0,32
80002ad8:	f18ff0ef          	jal	800021f0 <putch>
80002adc:	00144503          	lbu	a0,1(s0)
80002ae0:	00140413          	addi	s0,s0,1
80002ae4:	fe051ae3          	bnez	a0,80002ad8 <printf+0x438>
80002ae8:	00100513          	li	a0,1
80002aec:	f10ff0ef          	jal	800021fc <halt>
80002af0:	06500513          	li	a0,101
80002af4:	efcff0ef          	jal	800021f0 <putch>
80002af8:	00a00513          	li	a0,10
80002afc:	ef4ff0ef          	jal	800021f0 <putch>
80002b00:	00144503          	lbu	a0,1(s0)
80002b04:	00000417          	auipc	s0,0x0
80002b08:	71c40413          	addi	s0,s0,1820 # 80003220 <_etext+0x464>
80002b0c:	ee4ff0ef          	jal	800021f0 <putch>
80002b10:	00a00513          	li	a0,10
80002b14:	edcff0ef          	jal	800021f0 <putch>
80002b18:	04100513          	li	a0,65
80002b1c:	ed4ff0ef          	jal	800021f0 <putch>
80002b20:	00144503          	lbu	a0,1(s0)
80002b24:	00140413          	addi	s0,s0,1
80002b28:	fe051ae3          	bnez	a0,80002b1c <printf+0x47c>
80002b2c:	00001417          	auipc	s0,0x1
80002b30:	88c40413          	addi	s0,s0,-1908 # 800033b8 <_etext+0x5fc>
80002b34:	00a00513          	li	a0,10
80002b38:	eb8ff0ef          	jal	800021f0 <putch>
80002b3c:	00144503          	lbu	a0,1(s0)
80002b40:	00140413          	addi	s0,s0,1
80002b44:	fe051ae3          	bnez	a0,80002b38 <printf+0x498>
80002b48:	00001417          	auipc	s0,0x1
80002b4c:	88c40413          	addi	s0,s0,-1908 # 800033d4 <_etext+0x618>
80002b50:	02000513          	li	a0,32
80002b54:	e9cff0ef          	jal	800021f0 <putch>
80002b58:	00144503          	lbu	a0,1(s0)
80002b5c:	00140413          	addi	s0,s0,1
80002b60:	fe051ae3          	bnez	a0,80002b54 <printf+0x4b4>
80002b64:	f85ff06f          	j	80002ae8 <printf+0x448>
80002b68:	06500513          	li	a0,101
80002b6c:	e84ff0ef          	jal	800021f0 <putch>
80002b70:	00a00513          	li	a0,10
80002b74:	e7cff0ef          	jal	800021f0 <putch>
80002b78:	00344503          	lbu	a0,3(s0)
80002b7c:	00000417          	auipc	s0,0x0
80002b80:	6a440413          	addi	s0,s0,1700 # 80003220 <_etext+0x464>
80002b84:	e6cff0ef          	jal	800021f0 <putch>
80002b88:	00a00513          	li	a0,10
80002b8c:	e64ff0ef          	jal	800021f0 <putch>
80002b90:	04100513          	li	a0,65
80002b94:	e5cff0ef          	jal	800021f0 <putch>
80002b98:	00144503          	lbu	a0,1(s0)
80002b9c:	00140413          	addi	s0,s0,1
80002ba0:	fe051ae3          	bnez	a0,80002b94 <printf+0x4f4>
80002ba4:	00000417          	auipc	s0,0x0
80002ba8:	75c40413          	addi	s0,s0,1884 # 80003300 <_etext+0x544>
80002bac:	00a00513          	li	a0,10
80002bb0:	e40ff0ef          	jal	800021f0 <putch>
80002bb4:	00144503          	lbu	a0,1(s0)
80002bb8:	00140413          	addi	s0,s0,1
80002bbc:	fe051ae3          	bnez	a0,80002bb0 <printf+0x510>
80002bc0:	00000417          	auipc	s0,0x0
80002bc4:	75440413          	addi	s0,s0,1876 # 80003314 <_etext+0x558>
80002bc8:	02000513          	li	a0,32
80002bcc:	e24ff0ef          	jal	800021f0 <putch>
80002bd0:	00144503          	lbu	a0,1(s0)
80002bd4:	00140413          	addi	s0,s0,1
80002bd8:	fe051ae3          	bnez	a0,80002bcc <printf+0x52c>
80002bdc:	f0dff06f          	j	80002ae8 <printf+0x448>
80002be0:	06500513          	li	a0,101
80002be4:	e0cff0ef          	jal	800021f0 <putch>
80002be8:	00a00513          	li	a0,10
80002bec:	e04ff0ef          	jal	800021f0 <putch>
80002bf0:	00244503          	lbu	a0,2(s0)
80002bf4:	00000417          	auipc	s0,0x0
80002bf8:	62c40413          	addi	s0,s0,1580 # 80003220 <_etext+0x464>
80002bfc:	df4ff0ef          	jal	800021f0 <putch>
80002c00:	00a00513          	li	a0,10
80002c04:	decff0ef          	jal	800021f0 <putch>
80002c08:	04100513          	li	a0,65
80002c0c:	de4ff0ef          	jal	800021f0 <putch>
80002c10:	00144503          	lbu	a0,1(s0)
80002c14:	00140413          	addi	s0,s0,1
80002c18:	fe051ae3          	bnez	a0,80002c0c <printf+0x56c>
80002c1c:	00000417          	auipc	s0,0x0
80002c20:	68440413          	addi	s0,s0,1668 # 800032a0 <_etext+0x4e4>
80002c24:	00a00513          	li	a0,10
80002c28:	dc8ff0ef          	jal	800021f0 <putch>
80002c2c:	00144503          	lbu	a0,1(s0)
80002c30:	00140413          	addi	s0,s0,1
80002c34:	fe051ae3          	bnez	a0,80002c28 <printf+0x588>
80002c38:	00000417          	auipc	s0,0x0
80002c3c:	68040413          	addi	s0,s0,1664 # 800032b8 <_etext+0x4fc>
80002c40:	02000513          	li	a0,32
80002c44:	dacff0ef          	jal	800021f0 <putch>
80002c48:	00144503          	lbu	a0,1(s0)
80002c4c:	00140413          	addi	s0,s0,1
80002c50:	fe051ae3          	bnez	a0,80002c44 <printf+0x5a4>
80002c54:	e95ff06f          	j	80002ae8 <printf+0x448>

80002c58 <itoa>:
80002c58:	ff010113          	addi	sp,sp,-16
80002c5c:	00112623          	sw	ra,12(sp)
80002c60:	80000737          	lui	a4,0x80000
80002c64:	00058793          	mv	a5,a1
80002c68:	0ce50c63          	beq	a0,a4,80002d40 <itoa+0xe8>
80002c6c:	00050313          	mv	t1,a0
80002c70:	0a050863          	beqz	a0,80002d20 <itoa+0xc8>
80002c74:	41f55713          	srai	a4,a0,0x1f
80002c78:	00a74833          	xor	a6,a4,a0
80002c7c:	40e80833          	sub	a6,a6,a4
80002c80:	00000513          	li	a0,0
80002c84:	00900e13          	li	t3,9
80002c88:	02c865b3          	rem	a1,a6,a2
80002c8c:	00050693          	mv	a3,a0
80002c90:	00150513          	addi	a0,a0,1
80002c94:	0ff5f713          	zext.b	a4,a1
80002c98:	05770893          	addi	a7,a4,87 # 80000057 <iterate+0x47>
80002c9c:	03070713          	addi	a4,a4,48
80002ca0:	0ff77713          	zext.b	a4,a4
80002ca4:	00be5463          	bge	t3,a1,80002cac <itoa+0x54>
80002ca8:	0ff8f713          	zext.b	a4,a7
80002cac:	02c84833          	div	a6,a6,a2
80002cb0:	00a785b3          	add	a1,a5,a0
80002cb4:	fee58fa3          	sb	a4,-1(a1) # ffff <_entry_offset+0xffff>
80002cb8:	fc0818e3          	bnez	a6,80002c88 <itoa+0x30>
80002cbc:	04034063          	bltz	t1,80002cfc <itoa+0xa4>
80002cc0:	00058023          	sb	zero,0(a1)
80002cc4:	40155593          	srai	a1,a0,0x1
80002cc8:	06058463          	beqz	a1,80002d30 <itoa+0xd8>
80002ccc:	00d78733          	add	a4,a5,a3
80002cd0:	00b785b3          	add	a1,a5,a1
80002cd4:	00074603          	lbu	a2,0(a4)
80002cd8:	0007c683          	lbu	a3,0(a5)
80002cdc:	00178793          	addi	a5,a5,1
80002ce0:	fff70713          	addi	a4,a4,-1
80002ce4:	fec78fa3          	sb	a2,-1(a5)
80002ce8:	00d700a3          	sb	a3,1(a4)
80002cec:	feb794e3          	bne	a5,a1,80002cd4 <itoa+0x7c>
80002cf0:	00c12083          	lw	ra,12(sp)
80002cf4:	01010113          	addi	sp,sp,16
80002cf8:	00008067          	ret
80002cfc:	00268513          	addi	a0,a3,2
80002d00:	02d00713          	li	a4,45
80002d04:	00e58023          	sb	a4,0(a1)
80002d08:	00a78633          	add	a2,a5,a0
80002d0c:	00168713          	addi	a4,a3,1
80002d10:	00060023          	sb	zero,0(a2)
80002d14:	40155593          	srai	a1,a0,0x1
80002d18:	00e78733          	add	a4,a5,a4
80002d1c:	fb5ff06f          	j	80002cd0 <itoa+0x78>
80002d20:	00000597          	auipc	a1,0x0
80002d24:	29058593          	addi	a1,a1,656 # 80002fb0 <_etext+0x1f4>
80002d28:	00078513          	mv	a0,a5
80002d2c:	060000ef          	jal	80002d8c <strcpy>
80002d30:	00c12083          	lw	ra,12(sp)
80002d34:	00100513          	li	a0,1
80002d38:	01010113          	addi	sp,sp,16
80002d3c:	00008067          	ret
80002d40:	00000597          	auipc	a1,0x0
80002d44:	6dc58593          	addi	a1,a1,1756 # 8000341c <_etext+0x660>
80002d48:	00078513          	mv	a0,a5
80002d4c:	040000ef          	jal	80002d8c <strcpy>
80002d50:	00b00513          	li	a0,11
80002d54:	f9dff06f          	j	80002cf0 <itoa+0x98>

80002d58 <strlen>:
80002d58:	00050713          	mv	a4,a0
80002d5c:	02050263          	beqz	a0,80002d80 <strlen+0x28>
80002d60:	00054783          	lbu	a5,0(a0)
80002d64:	00000513          	li	a0,0
80002d68:	02078063          	beqz	a5,80002d88 <strlen+0x30>
80002d6c:	00150513          	addi	a0,a0,1
80002d70:	00a707b3          	add	a5,a4,a0
80002d74:	0007c783          	lbu	a5,0(a5)
80002d78:	fe079ae3          	bnez	a5,80002d6c <strlen+0x14>
80002d7c:	00008067          	ret
80002d80:	00000513          	li	a0,0
80002d84:	00008067          	ret
80002d88:	00008067          	ret

80002d8c <strcpy>:
80002d8c:	02058663          	beqz	a1,80002db8 <strcpy+0x2c>
80002d90:	02050463          	beqz	a0,80002db8 <strcpy+0x2c>
80002d94:	0005c783          	lbu	a5,0(a1)
80002d98:	00050713          	mv	a4,a0
80002d9c:	00078c63          	beqz	a5,80002db4 <strcpy+0x28>
80002da0:	00f70023          	sb	a5,0(a4)
80002da4:	0015c783          	lbu	a5,1(a1)
80002da8:	00170713          	addi	a4,a4,1
80002dac:	00158593          	addi	a1,a1,1
80002db0:	fe0798e3          	bnez	a5,80002da0 <strcpy+0x14>
80002db4:	00070023          	sb	zero,0(a4)
80002db8:	00008067          	ret
