
/home/curry/code/ysyx_curry/am-kernels/tests/am-tests/build/amtest-riscv32-nemu.elf:     file format elf32-littleriscv


Disassembly of section .text:

80000000 <_start>:
80000000:	00000413          	li	s0,0
80000004:	0009e117          	auipc	sp,0x9e
80000008:	ffc10113          	addi	sp,sp,-4 # 8009e000 <_end>
8000000c:	7e1000ef          	jal	80000fec <_trm_init>

80000010 <main>:
80000010:	fe010113          	addi	sp,sp,-32
80000014:	00112e23          	sw	ra,28(sp)
80000018:	00054783          	lbu	a5,0(a0)
8000001c:	01500713          	li	a4,21
80000020:	f9f78793          	addi	a5,a5,-97
80000024:	0ff7f793          	zext.b	a5,a5
80000028:	02f76063          	bltu	a4,a5,80000048 <main+0x38>
8000002c:	00003717          	auipc	a4,0x3
80000030:	ab070713          	addi	a4,a4,-1360 # 80002adc <_etext+0x92c>
80000034:	00279793          	slli	a5,a5,0x2
80000038:	00e787b3          	add	a5,a5,a4
8000003c:	0007a783          	lw	a5,0(a5)
80000040:	00e787b3          	add	a5,a5,a4
80000044:	00078067          	jr	a5
80000048:	00002517          	auipc	a0,0x2
8000004c:	16850513          	addi	a0,a0,360 # 800021b0 <_etext>
80000050:	00812c23          	sw	s0,24(sp)
80000054:	00912a23          	sw	s1,20(sp)
80000058:	01212823          	sw	s2,16(sp)
8000005c:	01312623          	sw	s3,12(sp)
80000060:	00003497          	auipc	s1,0x3
80000064:	ad448493          	addi	s1,s1,-1324 # 80002b34 <tests>
80000068:	105010ef          	jal	8000196c <printf>
8000006c:	00000413          	li	s0,0
80000070:	00002997          	auipc	s3,0x2
80000074:	15c98993          	addi	s3,s3,348 # 800021cc <_etext+0x1c>
80000078:	10000913          	li	s2,256
8000007c:	0004a603          	lw	a2,0(s1)
80000080:	00060863          	beqz	a2,80000090 <main+0x80>
80000084:	00040593          	mv	a1,s0
80000088:	00098513          	mv	a0,s3
8000008c:	0e1010ef          	jal	8000196c <printf>
80000090:	00140413          	addi	s0,s0,1
80000094:	00448493          	addi	s1,s1,4
80000098:	ff2412e3          	bne	s0,s2,8000007c <main+0x6c>
8000009c:	01812403          	lw	s0,24(sp)
800000a0:	01412483          	lw	s1,20(sp)
800000a4:	01012903          	lw	s2,16(sp)
800000a8:	00c12983          	lw	s3,12(sp)
800000ac:	01c12083          	lw	ra,28(sp)
800000b0:	00000513          	li	a0,0
800000b4:	02010113          	addi	sp,sp,32
800000b8:	00008067          	ret
800000bc:	00000797          	auipc	a5,0x0
800000c0:	26878793          	addi	a5,a5,616 # 80000324 <audio_test>
800000c4:	00095717          	auipc	a4,0x95
800000c8:	2cf72023          	sw	a5,704(a4) # 80095384 <entry>
800000cc:	7d5000ef          	jal	800010a0 <ioe_init>
800000d0:	254000ef          	jal	80000324 <audio_test>
800000d4:	fd9ff06f          	j	800000ac <main+0x9c>
800000d8:	00001797          	auipc	a5,0x1
800000dc:	c9878793          	addi	a5,a5,-872 # 80000d70 <devscan>
800000e0:	00095717          	auipc	a4,0x95
800000e4:	2af72223          	sw	a5,676(a4) # 80095384 <entry>
800000e8:	7b9000ef          	jal	800010a0 <ioe_init>
800000ec:	485000ef          	jal	80000d70 <devscan>
800000f0:	fbdff06f          	j	800000ac <main+0x9c>
800000f4:	00001797          	auipc	a5,0x1
800000f8:	c0878793          	addi	a5,a5,-1016 # 80000cfc <hello>
800000fc:	00095717          	auipc	a4,0x95
80000100:	28f72423          	sw	a5,648(a4) # 80095384 <entry>
80000104:	3f9000ef          	jal	80000cfc <hello>
80000108:	fa5ff06f          	j	800000ac <main+0x9c>
8000010c:	00000797          	auipc	a5,0x0
80000110:	1b078793          	addi	a5,a5,432 # 800002bc <hello_intr>
80000114:	00095717          	auipc	a4,0x95
80000118:	26f72823          	sw	a5,624(a4) # 80095384 <entry>
8000011c:	785000ef          	jal	800010a0 <ioe_init>
80000120:	00000517          	auipc	a0,0x0
80000124:	0c050513          	addi	a0,a0,192 # 800001e0 <simple_trap>
80000128:	1a4010ef          	jal	800012cc <cte_init>
8000012c:	190000ef          	jal	800002bc <hello_intr>
80000130:	f7dff06f          	j	800000ac <main+0x9c>
80000134:	00000797          	auipc	a5,0x0
80000138:	31078793          	addi	a5,a5,784 # 80000444 <keyboard_test>
8000013c:	00095717          	auipc	a4,0x95
80000140:	24f72423          	sw	a5,584(a4) # 80095384 <entry>
80000144:	75d000ef          	jal	800010a0 <ioe_init>
80000148:	2fc000ef          	jal	80000444 <keyboard_test>
8000014c:	f61ff06f          	j	800000ac <main+0x9c>
80000150:	00001797          	auipc	a5,0x1
80000154:	bf878793          	addi	a5,a5,-1032 # 80000d48 <mp_print>
80000158:	00078513          	mv	a0,a5
8000015c:	00095717          	auipc	a4,0x95
80000160:	22f72423          	sw	a5,552(a4) # 80095384 <entry>
80000164:	08c010ef          	jal	800011f0 <mpe_init>
80000168:	3e1000ef          	jal	80000d48 <mp_print>
8000016c:	f41ff06f          	j	800000ac <main+0x9c>
80000170:	00000797          	auipc	a5,0x0
80000174:	57078793          	addi	a5,a5,1392 # 800006e0 <vm_test>
80000178:	00000517          	auipc	a0,0x0
8000017c:	42050513          	addi	a0,a0,1056 # 80000598 <vm_handler>
80000180:	00095717          	auipc	a4,0x95
80000184:	20f72223          	sw	a5,516(a4) # 80095384 <entry>
80000188:	144010ef          	jal	800012cc <cte_init>
8000018c:	00000597          	auipc	a1,0x0
80000190:	40858593          	addi	a1,a1,1032 # 80000594 <simple_pgfree>
80000194:	00000517          	auipc	a0,0x0
80000198:	3bc50513          	addi	a0,a0,956 # 80000550 <simple_pgalloc>
8000019c:	29c010ef          	jal	80001438 <vme_init>
800001a0:	540000ef          	jal	800006e0 <vm_test>
800001a4:	f09ff06f          	j	800000ac <main+0x9c>
800001a8:	00001797          	auipc	a5,0x1
800001ac:	a7878793          	addi	a5,a5,-1416 # 80000c20 <rtc_test>
800001b0:	00095717          	auipc	a4,0x95
800001b4:	1cf72a23          	sw	a5,468(a4) # 80095384 <entry>
800001b8:	6e9000ef          	jal	800010a0 <ioe_init>
800001bc:	265000ef          	jal	80000c20 <rtc_test>
800001c0:	eedff06f          	j	800000ac <main+0x9c>
800001c4:	00001797          	auipc	a5,0x1
800001c8:	9b878793          	addi	a5,a5,-1608 # 80000b7c <video_test>
800001cc:	00095717          	auipc	a4,0x95
800001d0:	1af72c23          	sw	a5,440(a4) # 80095384 <entry>
800001d4:	6cd000ef          	jal	800010a0 <ioe_init>
800001d8:	1a5000ef          	jal	80000b7c <video_test>
800001dc:	ed1ff06f          	j	800000ac <main+0x9c>

800001e0 <simple_trap>:
800001e0:	00052783          	lw	a5,0(a0)
800001e4:	ff010113          	addi	sp,sp,-16
800001e8:	00812423          	sw	s0,8(sp)
800001ec:	00112623          	sw	ra,12(sp)
800001f0:	00500713          	li	a4,5
800001f4:	00058413          	mv	s0,a1
800001f8:	04e78663          	beq	a5,a4,80000244 <simple_trap+0x64>
800001fc:	00600713          	li	a4,6
80000200:	02e78463          	beq	a5,a4,80000228 <simple_trap+0x48>
80000204:	00100713          	li	a4,1
80000208:	04e79c63          	bne	a5,a4,80000260 <simple_trap+0x80>
8000020c:	07900513          	li	a0,121
80000210:	5c5000ef          	jal	80000fd4 <putch>
80000214:	00c12083          	lw	ra,12(sp)
80000218:	00040513          	mv	a0,s0
8000021c:	00812403          	lw	s0,8(sp)
80000220:	01010113          	addi	sp,sp,16
80000224:	00008067          	ret
80000228:	06400513          	li	a0,100
8000022c:	5a9000ef          	jal	80000fd4 <putch>
80000230:	00c12083          	lw	ra,12(sp)
80000234:	00040513          	mv	a0,s0
80000238:	00812403          	lw	s0,8(sp)
8000023c:	01010113          	addi	sp,sp,16
80000240:	00008067          	ret
80000244:	07400513          	li	a0,116
80000248:	58d000ef          	jal	80000fd4 <putch>
8000024c:	00c12083          	lw	ra,12(sp)
80000250:	00040513          	mv	a0,s0
80000254:	00812403          	lw	s0,8(sp)
80000258:	01010113          	addi	sp,sp,16
8000025c:	00008067          	ret
80000260:	00002417          	auipc	s0,0x2
80000264:	03440413          	addi	s0,s0,52 # 80002294 <_etext+0xe4>
80000268:	04100513          	li	a0,65
8000026c:	569000ef          	jal	80000fd4 <putch>
80000270:	00144503          	lbu	a0,1(s0)
80000274:	00140413          	addi	s0,s0,1
80000278:	fe051ae3          	bnez	a0,8000026c <simple_trap+0x8c>
8000027c:	00002417          	auipc	s0,0x2
80000280:	02440413          	addi	s0,s0,36 # 800022a0 <_etext+0xf0>
80000284:	05500513          	li	a0,85
80000288:	54d000ef          	jal	80000fd4 <putch>
8000028c:	00144503          	lbu	a0,1(s0)
80000290:	00140413          	addi	s0,s0,1
80000294:	fe051ae3          	bnez	a0,80000288 <simple_trap+0xa8>
80000298:	00002417          	auipc	s0,0x2
8000029c:	01840413          	addi	s0,s0,24 # 800022b0 <_etext+0x100>
800002a0:	02000513          	li	a0,32
800002a4:	531000ef          	jal	80000fd4 <putch>
800002a8:	00144503          	lbu	a0,1(s0)
800002ac:	00140413          	addi	s0,s0,1
800002b0:	fe051ae3          	bnez	a0,800002a4 <simple_trap+0xc4>
800002b4:	00100513          	li	a0,1
800002b8:	529000ef          	jal	80000fe0 <halt>

800002bc <hello_intr>:
800002bc:	fe010113          	addi	sp,sp,-32
800002c0:	00002517          	auipc	a0,0x2
800002c4:	04050513          	addi	a0,a0,64 # 80002300 <_etext+0x150>
800002c8:	00112e23          	sw	ra,28(sp)
800002cc:	00812c23          	sw	s0,24(sp)
800002d0:	69c010ef          	jal	8000196c <printf>
800002d4:	00002517          	auipc	a0,0x2
800002d8:	04850513          	addi	a0,a0,72 # 8000231c <_etext+0x16c>
800002dc:	690010ef          	jal	8000196c <printf>
800002e0:	00c10593          	addi	a1,sp,12
800002e4:	00700513          	li	a0,7
800002e8:	615000ef          	jal	800010fc <ioe_read>
800002ec:	00100513          	li	a0,1
800002f0:	00989437          	lui	s0,0x989
800002f4:	004010ef          	jal	800012f8 <iset>
800002f8:	67f40413          	addi	s0,s0,1663 # 98967f <_entry_offset+0x98967f>
800002fc:	00012623          	sw	zero,12(sp)
80000300:	00c12783          	lw	a5,12(sp)
80000304:	00f44c63          	blt	s0,a5,8000031c <hello_intr+0x60>
80000308:	00c12783          	lw	a5,12(sp)
8000030c:	00178793          	addi	a5,a5,1
80000310:	00f12623          	sw	a5,12(sp)
80000314:	00c12783          	lw	a5,12(sp)
80000318:	fef458e3          	bge	s0,a5,80000308 <hello_intr+0x4c>
8000031c:	7d1000ef          	jal	800012ec <yield>
80000320:	fddff06f          	j	800002fc <hello_intr+0x40>

80000324 <audio_test>:
80000324:	fd010113          	addi	sp,sp,-48
80000328:	00410593          	addi	a1,sp,4
8000032c:	00e00513          	li	a0,14
80000330:	02112623          	sw	ra,44(sp)
80000334:	5c9000ef          	jal	800010fc <ioe_read>
80000338:	00414783          	lbu	a5,4(sp)
8000033c:	0e078663          	beqz	a5,80000428 <audio_test+0x104>
80000340:	000027b7          	lui	a5,0x2
80000344:	f4078793          	addi	a5,a5,-192 # 1f40 <_entry_offset+0x1f40>
80000348:	00f12223          	sw	a5,4(sp)
8000034c:	00100793          	li	a5,1
80000350:	00f12423          	sw	a5,8(sp)
80000354:	00410593          	addi	a1,sp,4
80000358:	40000793          	li	a5,1024
8000035c:	00f00513          	li	a0,15
80000360:	03212023          	sw	s2,32(sp)
80000364:	01312e23          	sw	s3,28(sp)
80000368:	00f12623          	sw	a5,12(sp)
8000036c:	5ad000ef          	jal	80001118 <ioe_write>
80000370:	00011797          	auipc	a5,0x11
80000374:	bd478793          	addi	a5,a5,-1068 # 80010f44 <code>
80000378:	00003917          	auipc	s2,0x3
8000037c:	dc090913          	addi	s2,s2,-576 # 80003138 <audio_payload>
80000380:	412789b3          	sub	s3,a5,s2
80000384:	07278e63          	beq	a5,s2,80000400 <audio_test+0xdc>
80000388:	02812423          	sw	s0,40(sp)
8000038c:	02912223          	sw	s1,36(sp)
80000390:	01412c23          	sw	s4,24(sp)
80000394:	01512a23          	sw	s5,20(sp)
80000398:	00000493          	li	s1,0
8000039c:	00000413          	li	s0,0
800003a0:	00001ab7          	lui	s5,0x1
800003a4:	00002a17          	auipc	s4,0x2
800003a8:	fd0a0a13          	addi	s4,s4,-48 # 80002374 <_etext+0x1c4>
800003ac:	40898433          	sub	s0,s3,s0
800003b0:	00090793          	mv	a5,s2
800003b4:	00410593          	addi	a1,sp,4
800003b8:	01100513          	li	a0,17
800003bc:	008af463          	bgeu	s5,s0,800003c4 <audio_test+0xa0>
800003c0:	00001437          	lui	s0,0x1
800003c4:	00890933          	add	s2,s2,s0
800003c8:	00f12223          	sw	a5,4(sp)
800003cc:	008484b3          	add	s1,s1,s0
800003d0:	01212423          	sw	s2,8(sp)
800003d4:	545000ef          	jal	80001118 <ioe_write>
800003d8:	00098613          	mv	a2,s3
800003dc:	00048593          	mv	a1,s1
800003e0:	000a0513          	mv	a0,s4
800003e4:	588010ef          	jal	8000196c <printf>
800003e8:	00048413          	mv	s0,s1
800003ec:	fd34e0e3          	bltu	s1,s3,800003ac <audio_test+0x88>
800003f0:	02812403          	lw	s0,40(sp)
800003f4:	02412483          	lw	s1,36(sp)
800003f8:	01812a03          	lw	s4,24(sp)
800003fc:	01412a83          	lw	s5,20(sp)
80000400:	00410593          	addi	a1,sp,4
80000404:	01000513          	li	a0,16
80000408:	4f5000ef          	jal	800010fc <ioe_read>
8000040c:	00412783          	lw	a5,4(sp)
80000410:	fef048e3          	bgtz	a5,80000400 <audio_test+0xdc>
80000414:	02c12083          	lw	ra,44(sp)
80000418:	02012903          	lw	s2,32(sp)
8000041c:	01c12983          	lw	s3,28(sp)
80000420:	03010113          	addi	sp,sp,48
80000424:	00008067          	ret
80000428:	02c12083          	lw	ra,44(sp)
8000042c:	00002597          	auipc	a1,0x2
80000430:	f1458593          	addi	a1,a1,-236 # 80002340 <_etext+0x190>
80000434:	00002517          	auipc	a0,0x2
80000438:	f1c50513          	addi	a0,a0,-228 # 80002350 <_etext+0x1a0>
8000043c:	03010113          	addi	sp,sp,48
80000440:	52c0106f          	j	8000196c <printf>

80000444 <keyboard_test>:
80000444:	fc010113          	addi	sp,sp,-64
80000448:	00002517          	auipc	a0,0x2
8000044c:	f5050513          	addi	a0,a0,-176 # 80002398 <_etext+0x1e8>
80000450:	02112e23          	sw	ra,60(sp)
80000454:	02812c23          	sw	s0,56(sp)
80000458:	02912a23          	sw	s1,52(sp)
8000045c:	03212823          	sw	s2,48(sp)
80000460:	03312623          	sw	s3,44(sp)
80000464:	03412423          	sw	s4,40(sp)
80000468:	03512223          	sw	s5,36(sp)
8000046c:	03612023          	sw	s6,32(sp)
80000470:	01712e23          	sw	s7,28(sp)
80000474:	4f8010ef          	jal	8000196c <printf>
80000478:	00810593          	addi	a1,sp,8
8000047c:	00100513          	li	a0,1
80000480:	47d000ef          	jal	800010fc <ioe_read>
80000484:	00814783          	lbu	a5,8(sp)
80000488:	00095b97          	auipc	s7,0x95
8000048c:	f01b8b93          	addi	s7,s7,-255 # 80095389 <has_uart>
80000490:	00810593          	addi	a1,sp,8
80000494:	00700513          	li	a0,7
80000498:	00fb8023          	sb	a5,0(s7)
8000049c:	461000ef          	jal	800010fc <ioe_read>
800004a0:	00814783          	lbu	a5,8(sp)
800004a4:	00095b17          	auipc	s6,0x95
800004a8:	ee4b0b13          	addi	s6,s6,-284 # 80095388 <has_kbd>
800004ac:	00003997          	auipc	s3,0x3
800004b0:	a8898993          	addi	s3,s3,-1400 # 80002f34 <names>
800004b4:	00fb0023          	sb	a5,0(s6)
800004b8:	0ff00913          	li	s2,255
800004bc:	00002497          	auipc	s1,0x2
800004c0:	f0848493          	addi	s1,s1,-248 # 800023c4 <_etext+0x214>
800004c4:	00002a17          	auipc	s4,0x2
800004c8:	0d4a0a13          	addi	s4,s4,212 # 80002598 <_etext+0x3e8>
800004cc:	00002a97          	auipc	s5,0x2
800004d0:	0d4a8a93          	addi	s5,s5,212 # 800025a0 <_etext+0x3f0>
800004d4:	00002417          	auipc	s0,0x2
800004d8:	f0840413          	addi	s0,s0,-248 # 800023dc <_etext+0x22c>
800004dc:	000bc783          	lbu	a5,0(s7)
800004e0:	00079a63          	bnez	a5,800004f4 <keyboard_test+0xb0>
800004e4:	000b4783          	lbu	a5,0(s6)
800004e8:	fe078ae3          	beqz	a5,800004dc <keyboard_test+0x98>
800004ec:	03c0006f          	j	80000528 <keyboard_test+0xe4>
800004f0:	47c010ef          	jal	8000196c <printf>
800004f4:	00810593          	addi	a1,sp,8
800004f8:	00300513          	li	a0,3
800004fc:	401000ef          	jal	800010fc <ioe_read>
80000500:	00814603          	lbu	a2,8(sp)
80000504:	00048513          	mv	a0,s1
80000508:	00060593          	mv	a1,a2
8000050c:	ff2612e3          	bne	a2,s2,800004f0 <keyboard_test+0xac>
80000510:	fd5ff06f          	j	800004e4 <keyboard_test+0xa0>
80000514:	0007a583          	lw	a1,0(a5)
80000518:	000a0693          	mv	a3,s4
8000051c:	00070463          	beqz	a4,80000524 <keyboard_test+0xe0>
80000520:	000a8693          	mv	a3,s5
80000524:	448010ef          	jal	8000196c <printf>
80000528:	00800513          	li	a0,8
8000052c:	00810593          	addi	a1,sp,8
80000530:	3cd000ef          	jal	800010fc <ioe_read>
80000534:	00c12603          	lw	a2,12(sp)
80000538:	00814703          	lbu	a4,8(sp)
8000053c:	00040513          	mv	a0,s0
80000540:	00261793          	slli	a5,a2,0x2
80000544:	00f987b3          	add	a5,s3,a5
80000548:	fc0616e3          	bnez	a2,80000514 <keyboard_test+0xd0>
8000054c:	f91ff06f          	j	800004dc <keyboard_test+0x98>

80000550 <simple_pgalloc>:
80000550:	00095617          	auipc	a2,0x95
80000554:	e3c60613          	addi	a2,a2,-452 # 8009538c <st>
80000558:	00062683          	lw	a3,0(a2)
8000055c:	00069663          	bnez	a3,80000568 <simple_pgalloc+0x18>
80000560:	00011697          	auipc	a3,0x11
80000564:	9f86a683          	lw	a3,-1544(a3) # 80010f58 <heap>
80000568:	02a6f7b3          	remu	a5,a3,a0
8000056c:	00078c63          	beqz	a5,80000584 <simple_pgalloc+0x34>
80000570:	00168793          	addi	a5,a3,1
80000574:	02a7f733          	remu	a4,a5,a0
80000578:	00078693          	mv	a3,a5
8000057c:	00178793          	addi	a5,a5,1
80000580:	fe071ae3          	bnez	a4,80000574 <simple_pgalloc+0x24>
80000584:	00d50533          	add	a0,a0,a3
80000588:	00a62023          	sw	a0,0(a2)
8000058c:	00068513          	mv	a0,a3
80000590:	00008067          	ret

80000594 <simple_pgfree>:
80000594:	00008067          	ret

80000598 <vm_handler>:
80000598:	00052783          	lw	a5,0(a0)
8000059c:	fe010113          	addi	sp,sp,-32
800005a0:	00812c23          	sw	s0,24(sp)
800005a4:	00112e23          	sw	ra,28(sp)
800005a8:	00300713          	li	a4,3
800005ac:	00452603          	lw	a2,4(a0)
800005b0:	00058413          	mv	s0,a1
800005b4:	0ae78a63          	beq	a5,a4,80000668 <vm_handler+0xd0>
800005b8:	08f76263          	bltu	a4,a5,8000063c <vm_handler+0xa4>
800005bc:	00100713          	li	a4,1
800005c0:	04e78663          	beq	a5,a4,8000060c <vm_handler+0x74>
800005c4:	00200713          	li	a4,2
800005c8:	0ee79c63          	bne	a5,a4,800006c0 <vm_handler+0x128>
800005cc:	00100513          	li	a0,1
800005d0:	529000ef          	jal	800012f8 <iset>
800005d4:	00012623          	sw	zero,12(sp)
800005d8:	00c12783          	lw	a5,12(sp)
800005dc:	000f4737          	lui	a4,0xf4
800005e0:	23f70713          	addi	a4,a4,575 # f423f <_entry_offset+0xf423f>
800005e4:	00f74c63          	blt	a4,a5,800005fc <vm_handler+0x64>
800005e8:	00c12783          	lw	a5,12(sp)
800005ec:	00178793          	addi	a5,a5,1
800005f0:	00f12623          	sw	a5,12(sp)
800005f4:	00c12783          	lw	a5,12(sp)
800005f8:	fef758e3          	bge	a4,a5,800005e8 <vm_handler+0x50>
800005fc:	00842583          	lw	a1,8(s0)
80000600:	00002517          	auipc	a0,0x2
80000604:	ff050513          	addi	a0,a0,-16 # 800025f0 <_etext+0x440>
80000608:	364010ef          	jal	8000196c <printf>
8000060c:	00011797          	auipc	a5,0x11
80000610:	9487a783          	lw	a5,-1720(a5) # 80010f54 <first_trap>
80000614:	00078a63          	beqz	a5,80000628 <vm_handler+0x90>
80000618:	00011797          	auipc	a5,0x11
8000061c:	9207ae23          	sw	zero,-1732(a5) # 80010f54 <first_trap>
80000620:	00095417          	auipc	s0,0x95
80000624:	d7042403          	lw	s0,-656(s0) # 80095390 <uctx>
80000628:	01c12083          	lw	ra,28(sp)
8000062c:	00040513          	mv	a0,s0
80000630:	01812403          	lw	s0,24(sp)
80000634:	02010113          	addi	sp,sp,32
80000638:	00008067          	ret
8000063c:	ffb78793          	addi	a5,a5,-5
80000640:	00100713          	li	a4,1
80000644:	06f76e63          	bltu	a4,a5,800006c0 <vm_handler+0x128>
80000648:	00c52583          	lw	a1,12(a0)
8000064c:	00002517          	auipc	a0,0x2
80000650:	f7850513          	addi	a0,a0,-136 # 800025c4 <_etext+0x414>
80000654:	318010ef          	jal	8000196c <printf>
80000658:	00011797          	auipc	a5,0x11
8000065c:	8fc7a783          	lw	a5,-1796(a5) # 80010f54 <first_trap>
80000660:	fc0784e3          	beqz	a5,80000628 <vm_handler+0x90>
80000664:	fb5ff06f          	j	80000618 <vm_handler+0x80>
80000668:	00167793          	andi	a5,a2,1
8000066c:	00852583          	lw	a1,8(a0)
80000670:	00002697          	auipc	a3,0x2
80000674:	23468693          	addi	a3,a3,564 # 800028a4 <_etext+0x6f4>
80000678:	00078663          	beqz	a5,80000684 <vm_handler+0xec>
8000067c:	00002697          	auipc	a3,0x2
80000680:	f2c68693          	addi	a3,a3,-212 # 800025a8 <_etext+0x3f8>
80000684:	00267613          	andi	a2,a2,2
80000688:	00002717          	auipc	a4,0x2
8000068c:	21c70713          	addi	a4,a4,540 # 800028a4 <_etext+0x6f4>
80000690:	00060663          	beqz	a2,8000069c <vm_handler+0x104>
80000694:	00002717          	auipc	a4,0x2
80000698:	f2070713          	addi	a4,a4,-224 # 800025b4 <_etext+0x404>
8000069c:	00002617          	auipc	a2,0x2
800006a0:	20860613          	addi	a2,a2,520 # 800028a4 <_etext+0x6f4>
800006a4:	00002517          	auipc	a0,0x2
800006a8:	f3c50513          	addi	a0,a0,-196 # 800025e0 <_etext+0x430>
800006ac:	2c0010ef          	jal	8000196c <printf>
800006b0:	00011797          	auipc	a5,0x11
800006b4:	8a47a783          	lw	a5,-1884(a5) # 80010f54 <first_trap>
800006b8:	f60788e3          	beqz	a5,80000628 <vm_handler+0x90>
800006bc:	f5dff06f          	j	80000618 <vm_handler+0x80>
800006c0:	02800613          	li	a2,40
800006c4:	00002597          	auipc	a1,0x2
800006c8:	f3058593          	addi	a1,a1,-208 # 800025f4 <_etext+0x444>
800006cc:	00002517          	auipc	a0,0x2
800006d0:	f7050513          	addi	a0,a0,-144 # 8000263c <_etext+0x48c>
800006d4:	298010ef          	jal	8000196c <printf>
800006d8:	00100513          	li	a0,1
800006dc:	105000ef          	jal	80000fe0 <halt>

800006e0 <vm_test>:
800006e0:	fe010113          	addi	sp,sp,-32
800006e4:	00300613          	li	a2,3
800006e8:	00002597          	auipc	a1,0x2
800006ec:	f7058593          	addi	a1,a1,-144 # 80002658 <_etext+0x4a8>
800006f0:	00002517          	auipc	a0,0x2
800006f4:	f6c50513          	addi	a0,a0,-148 # 8000265c <_etext+0x4ac>
800006f8:	00112e23          	sw	ra,28(sp)
800006fc:	235010ef          	jal	80002130 <strncmp>
80000700:	00050e63          	beqz	a0,8000071c <vm_test+0x3c>
80000704:	00002597          	auipc	a1,0x2
80000708:	f6058593          	addi	a1,a1,-160 # 80002664 <_etext+0x4b4>
8000070c:	00002517          	auipc	a0,0x2
80000710:	f5050513          	addi	a0,a0,-176 # 8000265c <_etext+0x4ac>
80000714:	1a9010ef          	jal	800020bc <strcmp>
80000718:	10051863          	bnez	a0,80000828 <vm_test+0x148>
8000071c:	00012517          	auipc	a0,0x12
80000720:	a4850513          	addi	a0,a0,-1464 # 80012164 <prot>
80000724:	00812c23          	sw	s0,24(sp)
80000728:	00912a23          	sw	s1,20(sp)
8000072c:	01212823          	sw	s2,16(sp)
80000730:	559000ef          	jal	80001488 <protect>
80000734:	00012917          	auipc	s2,0x12
80000738:	a3090913          	addi	s2,s2,-1488 # 80012164 <prot>
8000073c:	00892603          	lw	a2,8(s2)
80000740:	00492583          	lw	a1,4(s2)
80000744:	00002517          	auipc	a0,0x2
80000748:	f4850513          	addi	a0,a0,-184 # 8000268c <_etext+0x4dc>
8000074c:	220010ef          	jal	8000196c <printf>
80000750:	00492783          	lw	a5,4(s2)
80000754:	00892483          	lw	s1,8(s2)
80000758:	00095697          	auipc	a3,0x95
8000075c:	c3468693          	addi	a3,a3,-972 # 8009538c <st>
80000760:	0006a403          	lw	s0,0(a3)
80000764:	40f484b3          	sub	s1,s1,a5
80000768:	0014d493          	srli	s1,s1,0x1
8000076c:	00092703          	lw	a4,0(s2)
80000770:	00f484b3          	add	s1,s1,a5
80000774:	00041c63          	bnez	s0,8000078c <vm_test+0xac>
80000778:	00010417          	auipc	s0,0x10
8000077c:	7e042403          	lw	s0,2016(s0) # 80010f58 <heap>
80000780:	02e477b3          	remu	a5,s0,a4
80000784:	00078863          	beqz	a5,80000794 <vm_test+0xb4>
80000788:	00140413          	addi	s0,s0,1
8000078c:	02e477b3          	remu	a5,s0,a4
80000790:	fe079ce3          	bnez	a5,80000788 <vm_test+0xa8>
80000794:	00870733          	add	a4,a4,s0
80000798:	00f00613          	li	a2,15
8000079c:	00010597          	auipc	a1,0x10
800007a0:	7a858593          	addi	a1,a1,1960 # 80010f44 <code>
800007a4:	00040513          	mv	a0,s0
800007a8:	00e6a023          	sw	a4,0(a3)
800007ac:	1d5010ef          	jal	80002180 <memcpy>
800007b0:	00300693          	li	a3,3
800007b4:	00040613          	mv	a2,s0
800007b8:	00048593          	mv	a1,s1
800007bc:	00012517          	auipc	a0,0x12
800007c0:	9a850513          	addi	a0,a0,-1624 # 80012164 <prot>
800007c4:	51d000ef          	jal	800014e0 <map>
800007c8:	00040613          	mv	a2,s0
800007cc:	00048593          	mv	a1,s1
800007d0:	00002517          	auipc	a0,0x2
800007d4:	ee050513          	addi	a0,a0,-288 # 800026b0 <_etext+0x500>
800007d8:	194010ef          	jal	8000196c <printf>
800007dc:	00048693          	mv	a3,s1
800007e0:	00011597          	auipc	a1,0x11
800007e4:	98458593          	addi	a1,a1,-1660 # 80011164 <stack.0>
800007e8:	00012617          	auipc	a2,0x12
800007ec:	97c60613          	addi	a2,a2,-1668 # 80012164 <prot>
800007f0:	00012517          	auipc	a0,0x12
800007f4:	97450513          	addi	a0,a0,-1676 # 80012164 <prot>
800007f8:	4ed000ef          	jal	800014e4 <ucontext>
800007fc:	00050793          	mv	a5,a0
80000800:	00100513          	li	a0,1
80000804:	00095717          	auipc	a4,0x95
80000808:	b8f72623          	sw	a5,-1140(a4) # 80095390 <uctx>
8000080c:	2ed000ef          	jal	800012f8 <iset>
80000810:	01812403          	lw	s0,24(sp)
80000814:	01412483          	lw	s1,20(sp)
80000818:	01012903          	lw	s2,16(sp)
8000081c:	01c12083          	lw	ra,28(sp)
80000820:	02010113          	addi	sp,sp,32
80000824:	2c90006f          	j	800012ec <yield>
80000828:	01c12083          	lw	ra,28(sp)
8000082c:	00002517          	auipc	a0,0x2
80000830:	e4050513          	addi	a0,a0,-448 # 8000266c <_etext+0x4bc>
80000834:	02010113          	addi	sp,sp,32
80000838:	1340106f          	j	8000196c <printf>

8000083c <redraw>:
8000083c:	fb010113          	addi	sp,sp,-80
80000840:	00810593          	addi	a1,sp,8
80000844:	00900513          	li	a0,9
80000848:	04112623          	sw	ra,76(sp)
8000084c:	03312e23          	sw	s3,60(sp)
80000850:	03512a23          	sw	s5,52(sp)
80000854:	03712623          	sw	s7,44(sp)
80000858:	04812423          	sw	s0,72(sp)
8000085c:	04912223          	sw	s1,68(sp)
80000860:	05212023          	sw	s2,64(sp)
80000864:	03412c23          	sw	s4,56(sp)
80000868:	03612823          	sw	s6,48(sp)
8000086c:	03812423          	sw	s8,40(sp)
80000870:	03912223          	sw	s9,36(sp)
80000874:	089000ef          	jal	800010fc <ioe_read>
80000878:	00c12783          	lw	a5,12(sp)
8000087c:	00810593          	addi	a1,sp,8
80000880:	00900513          	li	a0,9
80000884:	41f7d993          	srai	s3,a5,0x1f
80000888:	01f9f993          	andi	s3,s3,31
8000088c:	00f989b3          	add	s3,s3,a5
80000890:	06d000ef          	jal	800010fc <ioe_read>
80000894:	01012783          	lw	a5,16(sp)
80000898:	4059d993          	srai	s3,s3,0x5
8000089c:	40000713          	li	a4,1024
800008a0:	41f7da93          	srai	s5,a5,0x1f
800008a4:	01fafa93          	andi	s5,s5,31
800008a8:	00fa8ab3          	add	s5,s5,a5
800008ac:	405ada93          	srai	s5,s5,0x5
800008b0:	03598bb3          	mul	s7,s3,s5
800008b4:	0f776063          	bltu	a4,s7,80000994 <redraw+0x158>
800008b8:	00012a17          	auipc	s4,0x12
800008bc:	8bca0a13          	addi	s4,s4,-1860 # 80012174 <color_buf>
800008c0:	002b9413          	slli	s0,s7,0x2
800008c4:	00014b17          	auipc	s6,0x14
800008c8:	930b0b13          	addi	s6,s6,-1744 # 800141f4 <canvas+0x80>
800008cc:	00015c17          	auipc	s8,0x15
800008d0:	928c0c13          	addi	s8,s8,-1752 # 800151f4 <buf.0+0x80>
800008d4:	008a0433          	add	s0,s4,s0
800008d8:	00000c93          	li	s9,0
800008dc:	f80b0493          	addi	s1,s6,-128
800008e0:	00000913          	li	s2,0
800008e4:	000b8c63          	beqz	s7,800008fc <redraw+0xc0>
800008e8:	0004a703          	lw	a4,0(s1)
800008ec:	000a0793          	mv	a5,s4
800008f0:	00e7a023          	sw	a4,0(a5)
800008f4:	00478793          	addi	a5,a5,4
800008f8:	fe879ce3          	bne	a5,s0,800008f0 <redraw+0xb4>
800008fc:	00810593          	addi	a1,sp,8
80000900:	00b00513          	li	a0,11
80000904:	00448493          	addi	s1,s1,4
80000908:	01212423          	sw	s2,8(sp)
8000090c:	01912623          	sw	s9,12(sp)
80000910:	01412823          	sw	s4,16(sp)
80000914:	01312a23          	sw	s3,20(sp)
80000918:	01512c23          	sw	s5,24(sp)
8000091c:	00010e23          	sb	zero,28(sp)
80000920:	01390933          	add	s2,s2,s3
80000924:	7f4000ef          	jal	80001118 <ioe_write>
80000928:	fb649ee3          	bne	s1,s6,800008e4 <redraw+0xa8>
8000092c:	08048b13          	addi	s6,s1,128
80000930:	015c8cb3          	add	s9,s9,s5
80000934:	fb8b14e3          	bne	s6,s8,800008dc <redraw+0xa0>
80000938:	00810593          	addi	a1,sp,8
8000093c:	00100793          	li	a5,1
80000940:	00b00513          	li	a0,11
80000944:	00012423          	sw	zero,8(sp)
80000948:	00012623          	sw	zero,12(sp)
8000094c:	00012823          	sw	zero,16(sp)
80000950:	00012a23          	sw	zero,20(sp)
80000954:	00012c23          	sw	zero,24(sp)
80000958:	00f10e23          	sb	a5,28(sp)
8000095c:	7bc000ef          	jal	80001118 <ioe_write>
80000960:	04c12083          	lw	ra,76(sp)
80000964:	04812403          	lw	s0,72(sp)
80000968:	04412483          	lw	s1,68(sp)
8000096c:	04012903          	lw	s2,64(sp)
80000970:	03c12983          	lw	s3,60(sp)
80000974:	03812a03          	lw	s4,56(sp)
80000978:	03412a83          	lw	s5,52(sp)
8000097c:	03012b03          	lw	s6,48(sp)
80000980:	02c12b83          	lw	s7,44(sp)
80000984:	02812c03          	lw	s8,40(sp)
80000988:	02412c83          	lw	s9,36(sp)
8000098c:	05010113          	addi	sp,sp,80
80000990:	00008067          	ret
80000994:	01600613          	li	a2,22
80000998:	00002597          	auipc	a1,0x2
8000099c:	d4458593          	addi	a1,a1,-700 # 800026dc <_etext+0x52c>
800009a0:	00002517          	auipc	a0,0x2
800009a4:	c9c50513          	addi	a0,a0,-868 # 8000263c <_etext+0x48c>
800009a8:	7c5000ef          	jal	8000196c <printf>
800009ac:	00100513          	li	a0,1
800009b0:	630000ef          	jal	80000fe0 <halt>

800009b4 <update>:
800009b4:	00095797          	auipc	a5,0x95
800009b8:	9e078793          	addi	a5,a5,-1568 # 80095394 <tsc.2>
800009bc:	0007a383          	lw	t2,0(a5)
800009c0:	fe010113          	addi	sp,sp,-32
800009c4:	00812e23          	sw	s0,28(sp)
800009c8:	00912c23          	sw	s1,24(sp)
800009cc:	01212a23          	sw	s2,20(sp)
800009d0:	01312823          	sw	s3,16(sp)
800009d4:	01412623          	sw	s4,12(sp)
800009d8:	00138393          	addi	t2,t2,1
800009dc:	00013717          	auipc	a4,0x13
800009e0:	81870713          	addi	a4,a4,-2024 # 800131f4 <used+0x80>
800009e4:	00014697          	auipc	a3,0x14
800009e8:	81068693          	addi	a3,a3,-2032 # 800141f4 <canvas+0x80>
800009ec:	0077a023          	sw	t2,0(a5)
800009f0:	f8070793          	addi	a5,a4,-128
800009f4:	0007a023          	sw	zero,0(a5)
800009f8:	00478793          	addi	a5,a5,4
800009fc:	fef71ce3          	bne	a4,a5,800009f4 <update+0x40>
80000a00:	08070713          	addi	a4,a4,128
80000a04:	fee696e3          	bne	a3,a4,800009f0 <update+0x3c>
80000a08:	0ff3f693          	zext.b	a3,t2
80000a0c:	00169793          	slli	a5,a3,0x1
80000a10:	00f687b3          	add	a5,a3,a5
80000a14:	00369713          	slli	a4,a3,0x3
80000a18:	40d70733          	sub	a4,a4,a3
80000a1c:	00179793          	slli	a5,a5,0x1
80000a20:	0ff7f793          	zext.b	a5,a5
80000a24:	0ff77713          	zext.b	a4,a4
80000a28:	00871713          	slli	a4,a4,0x8
80000a2c:	01079793          	slli	a5,a5,0x10
80000a30:	00e7e7b3          	or	a5,a5,a4
80000a34:	0ff3f713          	zext.b	a4,t2
80000a38:	00e7e7b3          	or	a5,a5,a4
80000a3c:	00013417          	auipc	s0,0x13
80000a40:	73840413          	addi	s0,s0,1848 # 80014174 <canvas>
80000a44:	00012e97          	auipc	t4,0x12
80000a48:	730e8e93          	addi	t4,t4,1840 # 80013174 <used>
80000a4c:	00f42023          	sw	a5,0(s0)
80000a50:	00100793          	li	a5,1
80000a54:	00fea023          	sw	a5,0(t4)
80000a58:	00100693          	li	a3,1
80000a5c:	00000713          	li	a4,0
80000a60:	00100f93          	li	t6,1
80000a64:	00000813          	li	a6,0
80000a68:	00000913          	li	s2,0
80000a6c:	00000e13          	li	t3,0
80000a70:	01f00f13          	li	t5,31
80000a74:	00002317          	auipc	t1,0x2
80000a78:	61c30313          	addi	t1,t1,1564 # 80003090 <dx.1>
80000a7c:	00002897          	auipc	a7,0x2
80000a80:	60488893          	addi	a7,a7,1540 # 80003080 <dy.0>
80000a84:	00100493          	li	s1,1
80000a88:	40000293          	li	t0,1024
80000a8c:	00400513          	li	a0,4
80000a90:	00180793          	addi	a5,a6,1
80000a94:	00ee05b3          	add	a1,t3,a4
80000a98:	41f7d613          	srai	a2,a5,0x1f
80000a9c:	00d906b3          	add	a3,s2,a3
80000aa0:	00559713          	slli	a4,a1,0x5
80000aa4:	01e65613          	srli	a2,a2,0x1e
80000aa8:	00d70733          	add	a4,a4,a3
80000aac:	00271713          	slli	a4,a4,0x2
80000ab0:	00c787b3          	add	a5,a5,a2
80000ab4:	00d5e9b3          	or	s3,a1,a3
80000ab8:	00ee8a33          	add	s4,t4,a4
80000abc:	0037f793          	andi	a5,a5,3
80000ac0:	fff50513          	addi	a0,a0,-1
80000ac4:	013f6663          	bltu	t5,s3,80000ad0 <update+0x11c>
80000ac8:	000a2983          	lw	s3,0(s4)
80000acc:	02098263          	beqz	s3,80000af0 <update+0x13c>
80000ad0:	40c78833          	sub	a6,a5,a2
80000ad4:	00281793          	slli	a5,a6,0x2
80000ad8:	00f30733          	add	a4,t1,a5
80000adc:	00f887b3          	add	a5,a7,a5
80000ae0:	06050063          	beqz	a0,80000b40 <update+0x18c>
80000ae4:	00072703          	lw	a4,0(a4)
80000ae8:	0007a683          	lw	a3,0(a5)
80000aec:	fa5ff06f          	j	80000a90 <update+0xdc>
80000af0:	401fd513          	srai	a0,t6,0x1
80000af4:	00750533          	add	a0,a0,t2
80000af8:	0ff57e13          	zext.b	t3,a0
80000afc:	001e1613          	slli	a2,t3,0x1
80000b00:	00ce0633          	add	a2,t3,a2
80000b04:	003e1793          	slli	a5,t3,0x3
80000b08:	41c787b3          	sub	a5,a5,t3
80000b0c:	00161613          	slli	a2,a2,0x1
80000b10:	0ff67613          	zext.b	a2,a2
80000b14:	0ff7f793          	zext.b	a5,a5
80000b18:	00879793          	slli	a5,a5,0x8
80000b1c:	01061613          	slli	a2,a2,0x10
80000b20:	00f66633          	or	a2,a2,a5
80000b24:	0ff57513          	zext.b	a0,a0
80000b28:	00e407b3          	add	a5,s0,a4
80000b2c:	00a66733          	or	a4,a2,a0
80000b30:	009a2023          	sw	s1,0(s4)
80000b34:	00e7a023          	sw	a4,0(a5)
80000b38:	00068913          	mv	s2,a3
80000b3c:	00058e13          	mv	t3,a1
80000b40:	001f8f93          	addi	t6,t6,1
80000b44:	005f8e63          	beq	t6,t0,80000b60 <update+0x1ac>
80000b48:	00281793          	slli	a5,a6,0x2
80000b4c:	00f30733          	add	a4,t1,a5
80000b50:	00f887b3          	add	a5,a7,a5
80000b54:	00072703          	lw	a4,0(a4)
80000b58:	0007a683          	lw	a3,0(a5)
80000b5c:	f31ff06f          	j	80000a8c <update+0xd8>
80000b60:	01c12403          	lw	s0,28(sp)
80000b64:	01812483          	lw	s1,24(sp)
80000b68:	01412903          	lw	s2,20(sp)
80000b6c:	01012983          	lw	s3,16(sp)
80000b70:	00c12a03          	lw	s4,12(sp)
80000b74:	02010113          	addi	sp,sp,32
80000b78:	00008067          	ret

80000b7c <video_test>:
80000b7c:	fd010113          	addi	sp,sp,-48
80000b80:	02912223          	sw	s1,36(sp)
80000b84:	03212023          	sw	s2,32(sp)
80000b88:	01312e23          	sw	s3,28(sp)
80000b8c:	01412c23          	sw	s4,24(sp)
80000b90:	01512a23          	sw	s5,20(sp)
80000b94:	01612823          	sw	s6,16(sp)
80000b98:	02112623          	sw	ra,44(sp)
80000b9c:	02812423          	sw	s0,40(sp)
80000ba0:	00000993          	li	s3,0
80000ba4:	00000913          	li	s2,0
80000ba8:	00000493          	li	s1,0
80000bac:	02100a93          	li	s5,33
80000bb0:	3e800a13          	li	s4,1000
80000bb4:	00002b17          	auipc	s6,0x2
80000bb8:	b70b0b13          	addi	s6,s6,-1168 # 80002724 <_etext+0x574>
80000bbc:	00810593          	addi	a1,sp,8
80000bc0:	00600513          	li	a0,6
80000bc4:	538000ef          	jal	800010fc <ioe_read>
80000bc8:	00812503          	lw	a0,8(sp)
80000bcc:	00c12583          	lw	a1,12(sp)
80000bd0:	3e800613          	li	a2,1000
80000bd4:	00000693          	li	a3,0
80000bd8:	485000ef          	jal	8000185c <__udivdi3>
80000bdc:	409507b3          	sub	a5,a0,s1
80000be0:	00050413          	mv	s0,a0
80000be4:	02fae463          	bltu	s5,a5,80000c0c <video_test+0x90>
80000be8:	412407b3          	sub	a5,s0,s2
80000bec:	fcfa78e3          	bgeu	s4,a5,80000bbc <video_test+0x40>
80000bf0:	00098613          	mv	a2,s3
80000bf4:	00040593          	mv	a1,s0
80000bf8:	000b0513          	mv	a0,s6
80000bfc:	571000ef          	jal	8000196c <printf>
80000c00:	00040913          	mv	s2,s0
80000c04:	00000993          	li	s3,0
80000c08:	fb5ff06f          	j	80000bbc <video_test+0x40>
80000c0c:	da9ff0ef          	jal	800009b4 <update>
80000c10:	00198993          	addi	s3,s3,1
80000c14:	c29ff0ef          	jal	8000083c <redraw>
80000c18:	00040493          	mv	s1,s0
80000c1c:	fcdff06f          	j	80000be8 <video_test+0x6c>

80000c20 <rtc_test>:
80000c20:	fb010113          	addi	sp,sp,-80
80000c24:	05212023          	sw	s2,64(sp)
80000c28:	000f4937          	lui	s2,0xf4
80000c2c:	04812423          	sw	s0,72(sp)
80000c30:	04912223          	sw	s1,68(sp)
80000c34:	03312e23          	sw	s3,60(sp)
80000c38:	03412c23          	sw	s4,56(sp)
80000c3c:	03512a23          	sw	s5,52(sp)
80000c40:	03612823          	sw	s6,48(sp)
80000c44:	03712623          	sw	s7,44(sp)
80000c48:	04112623          	sw	ra,76(sp)
80000c4c:	00100493          	li	s1,1
80000c50:	00000413          	li	s0,0
80000c54:	24090913          	addi	s2,s2,576 # f4240 <_entry_offset+0xf4240>
80000c58:	00000993          	li	s3,0
80000c5c:	00002b17          	auipc	s6,0x2
80000c60:	ad8b0b13          	addi	s6,s6,-1320 # 80002734 <_etext+0x584>
80000c64:	00100a93          	li	s5,1
80000c68:	00002b97          	auipc	s7,0x2
80000c6c:	afcb8b93          	addi	s7,s7,-1284 # 80002764 <_etext+0x5b4>
80000c70:	00002a17          	auipc	s4,0x2
80000c74:	ae4a0a13          	addi	s4,s4,-1308 # 80002754 <_etext+0x5a4>
80000c78:	00810593          	addi	a1,sp,8
80000c7c:	00600513          	li	a0,6
80000c80:	47c000ef          	jal	800010fc <ioe_read>
80000c84:	00812503          	lw	a0,8(sp)
80000c88:	00c12583          	lw	a1,12(sp)
80000c8c:	00090613          	mv	a2,s2
80000c90:	00098693          	mv	a3,s3
80000c94:	3c9000ef          	jal	8000185c <__udivdi3>
80000c98:	fe85e0e3          	bltu	a1,s0,80000c78 <rtc_test+0x58>
80000c9c:	00b41463          	bne	s0,a1,80000ca4 <rtc_test+0x84>
80000ca0:	fc956ce3          	bltu	a0,s1,80000c78 <rtc_test+0x58>
80000ca4:	00810593          	addi	a1,sp,8
80000ca8:	00500513          	li	a0,5
80000cac:	450000ef          	jal	800010fc <ioe_read>
80000cb0:	00812583          	lw	a1,8(sp)
80000cb4:	01c12803          	lw	a6,28(sp)
80000cb8:	01812783          	lw	a5,24(sp)
80000cbc:	01412703          	lw	a4,20(sp)
80000cc0:	01012683          	lw	a3,16(sp)
80000cc4:	00c12603          	lw	a2,12(sp)
80000cc8:	000b0513          	mv	a0,s6
80000ccc:	4a1000ef          	jal	8000196c <printf>
80000cd0:	00100593          	li	a1,1
80000cd4:	000a0513          	mv	a0,s4
80000cd8:	01548663          	beq	s1,s5,80000ce4 <rtc_test+0xc4>
80000cdc:	00048593          	mv	a1,s1
80000ce0:	000b8513          	mv	a0,s7
80000ce4:	489000ef          	jal	8000196c <printf>
80000ce8:	00148793          	addi	a5,s1,1
80000cec:	0097b4b3          	sltu	s1,a5,s1
80000cf0:	00848433          	add	s0,s1,s0
80000cf4:	00078493          	mv	s1,a5
80000cf8:	f81ff06f          	j	80000c78 <rtc_test+0x58>

80000cfc <hello>:
80000cfc:	ff010113          	addi	sp,sp,-16
80000d00:	00912223          	sw	s1,4(sp)
80000d04:	00112623          	sw	ra,12(sp)
80000d08:	00812423          	sw	s0,8(sp)
80000d0c:	00a00493          	li	s1,10
80000d10:	00001417          	auipc	s0,0x1
80000d14:	5f040413          	addi	s0,s0,1520 # 80002300 <_etext+0x150>
80000d18:	04800513          	li	a0,72
80000d1c:	2b8000ef          	jal	80000fd4 <putch>
80000d20:	00144503          	lbu	a0,1(s0)
80000d24:	00140413          	addi	s0,s0,1
80000d28:	fe051ae3          	bnez	a0,80000d1c <hello+0x20>
80000d2c:	fff48493          	addi	s1,s1,-1
80000d30:	fe0490e3          	bnez	s1,80000d10 <hello+0x14>
80000d34:	00c12083          	lw	ra,12(sp)
80000d38:	00812403          	lw	s0,8(sp)
80000d3c:	00412483          	lw	s1,4(sp)
80000d40:	01010113          	addi	sp,sp,16
80000d44:	00008067          	ret

80000d48 <mp_print>:
80000d48:	ff010113          	addi	sp,sp,-16
80000d4c:	00812423          	sw	s0,8(sp)
80000d50:	00112623          	sw	ra,12(sp)
80000d54:	00002417          	auipc	s0,0x2
80000d58:	a2040413          	addi	s0,s0,-1504 # 80002774 <_etext+0x5c4>
80000d5c:	500000ef          	jal	8000125c <cpu_current>
80000d60:	00050593          	mv	a1,a0
80000d64:	00040513          	mv	a0,s0
80000d68:	405000ef          	jal	8000196c <printf>
80000d6c:	ff1ff06f          	j	80000d5c <mp_print+0x14>

80000d70 <devscan>:
80000d70:	00010797          	auipc	a5,0x10
80000d74:	1e878793          	addi	a5,a5,488 # 80010f58 <heap>
80000d78:	0047a603          	lw	a2,4(a5)
80000d7c:	0007a583          	lw	a1,0(a5)
80000d80:	fc010113          	addi	sp,sp,-64
80000d84:	00002517          	auipc	a0,0x2
80000d88:	9f450513          	addi	a0,a0,-1548 # 80002778 <_etext+0x5c8>
80000d8c:	02112e23          	sw	ra,60(sp)
80000d90:	02812c23          	sw	s0,56(sp)
80000d94:	02912a23          	sw	s1,52(sp)
80000d98:	03212823          	sw	s2,48(sp)
80000d9c:	03312623          	sw	s3,44(sp)
80000da0:	03412423          	sw	s4,40(sp)
80000da4:	3c9000ef          	jal	8000196c <printf>
80000da8:	00002517          	auipc	a0,0x2
80000dac:	9e850513          	addi	a0,a0,-1560 # 80002790 <_etext+0x5e0>
80000db0:	3bd000ef          	jal	8000196c <printf>
80000db4:	01010593          	addi	a1,sp,16
80000db8:	00600513          	li	a0,6
80000dbc:	340000ef          	jal	800010fc <ioe_read>
80000dc0:	01012503          	lw	a0,16(sp)
80000dc4:	01412583          	lw	a1,20(sp)
80000dc8:	3e800613          	li	a2,1000
80000dcc:	00000693          	li	a3,0
80000dd0:	28d000ef          	jal	8000185c <__udivdi3>
80000dd4:	00012623          	sw	zero,12(sp)
80000dd8:	00c12783          	lw	a5,12(sp)
80000ddc:	00989737          	lui	a4,0x989
80000de0:	67f70713          	addi	a4,a4,1663 # 98967f <_entry_offset+0x98967f>
80000de4:	00050413          	mv	s0,a0
80000de8:	00f74c63          	blt	a4,a5,80000e00 <devscan+0x90>
80000dec:	00c12783          	lw	a5,12(sp)
80000df0:	00178793          	addi	a5,a5,1
80000df4:	00f12623          	sw	a5,12(sp)
80000df8:	00c12783          	lw	a5,12(sp)
80000dfc:	fef758e3          	bge	a4,a5,80000dec <devscan+0x7c>
80000e00:	01010593          	addi	a1,sp,16
80000e04:	00600513          	li	a0,6
80000e08:	2f4000ef          	jal	800010fc <ioe_read>
80000e0c:	01012503          	lw	a0,16(sp)
80000e10:	01412583          	lw	a1,20(sp)
80000e14:	3e800613          	li	a2,1000
80000e18:	00000693          	li	a3,0
80000e1c:	241000ef          	jal	8000185c <__udivdi3>
80000e20:	408505b3          	sub	a1,a0,s0
80000e24:	00002517          	auipc	a0,0x2
80000e28:	98850513          	addi	a0,a0,-1656 # 800027ac <_etext+0x5fc>
80000e2c:	341000ef          	jal	8000196c <printf>
80000e30:	01010593          	addi	a1,sp,16
80000e34:	00900513          	li	a0,9
80000e38:	2c4000ef          	jal	800010fc <ioe_read>
80000e3c:	01412983          	lw	s3,20(sp)
80000e40:	01812903          	lw	s2,24(sp)
80000e44:	00002517          	auipc	a0,0x2
80000e48:	98850513          	addi	a0,a0,-1656 # 800027cc <_etext+0x61c>
80000e4c:	00098593          	mv	a1,s3
80000e50:	00090613          	mv	a2,s2
80000e54:	319000ef          	jal	8000196c <printf>
80000e58:	00014417          	auipc	s0,0x14
80000e5c:	5ec40413          	addi	s0,s0,1516 # 80015444 <vmem+0xd0>
80000e60:	00094497          	auipc	s1,0x94
80000e64:	51448493          	addi	s1,s1,1300 # 80095374 <kas>
80000e68:	1bc010ef          	jal	80002024 <rand>
80000e6c:	00a40023          	sb	a0,0(s0)
80000e70:	00140413          	addi	s0,s0,1
80000e74:	fe941ae3          	bne	s0,s1,80000e68 <devscan+0xf8>
80000e78:	41f9d713          	srai	a4,s3,0x1f
80000e7c:	00377713          	andi	a4,a4,3
80000e80:	01370733          	add	a4,a4,s3
80000e84:	00014797          	auipc	a5,0x14
80000e88:	4f078793          	addi	a5,a5,1264 # 80015374 <vmem>
80000e8c:	40275713          	srai	a4,a4,0x2
80000e90:	00e79323          	sh	a4,6(a5)
80000e94:	00014717          	auipc	a4,0x14
80000e98:	4e071423          	sh	zero,1256(a4) # 8001537c <vmem+0x8>
80000e9c:	01f9d693          	srli	a3,s3,0x1f
80000ea0:	02500713          	li	a4,37
80000ea4:	00e79923          	sh	a4,18(a5)
80000ea8:	013686b3          	add	a3,a3,s3
80000eac:	00a00713          	li	a4,10
80000eb0:	ffff0837          	lui	a6,0xffff0
80000eb4:	fff00613          	li	a2,-1
80000eb8:	00180813          	addi	a6,a6,1 # ffff0001 <_end+0x7ff52001>
80000ebc:	4016d693          	srai	a3,a3,0x1
80000ec0:	00e79a23          	sh	a4,20(a5)
80000ec4:	f9c90913          	addi	s2,s2,-100
80000ec8:	0d000713          	li	a4,208
80000ecc:	00e79b23          	sh	a4,22(a5)
80000ed0:	0107a023          	sw	a6,0(a5)
80000ed4:	00d79523          	sh	a3,10(a5)
80000ed8:	00c79223          	sh	a2,4(a5)
80000edc:	00c79723          	sh	a2,14(a5)
80000ee0:	00c79823          	sh	a2,16(a5)
80000ee4:	01279623          	sh	s2,12(a5)
80000ee8:	01010593          	addi	a1,sp,16
80000eec:	00c00513          	li	a0,12
80000ef0:	00f12a23          	sw	a5,20(sp)
80000ef4:	000807b7          	lui	a5,0x80
80000ef8:	00f12c23          	sw	a5,24(sp)
80000efc:	00014717          	auipc	a4,0x14
80000f00:	48071823          	sh	zero,1168(a4) # 8001538c <vmem+0x18>
80000f04:	00012823          	sw	zero,16(sp)
80000f08:	210000ef          	jal	80001118 <ioe_write>
80000f0c:	01010593          	addi	a1,sp,16
80000f10:	00d00513          	li	a0,13
80000f14:	00012823          	sw	zero,16(sp)
80000f18:	200000ef          	jal	80001118 <ioe_write>
80000f1c:	01010593          	addi	a1,sp,16
80000f20:	01200513          	li	a0,18
80000f24:	1d8000ef          	jal	800010fc <ioe_read>
80000f28:	01412403          	lw	s0,20(sp)
80000f2c:	01812583          	lw	a1,24(sp)
80000f30:	00002517          	auipc	a0,0x2
80000f34:	8b450513          	addi	a0,a0,-1868 # 800027e4 <_etext+0x634>
80000f38:	00040613          	mv	a2,s0
80000f3c:	231000ef          	jal	8000196c <printf>
80000f40:	20000793          	li	a5,512
80000f44:	0287c7b3          	div	a5,a5,s0
80000f48:	01010593          	addi	a1,sp,16
80000f4c:	00014417          	auipc	s0,0x14
80000f50:	22840413          	addi	s0,s0,552 # 80015174 <buf.0>
80000f54:	01400513          	li	a0,20
80000f58:	00200493          	li	s1,2
80000f5c:	00010823          	sb	zero,16(sp)
80000f60:	00812a23          	sw	s0,20(sp)
80000f64:	00012c23          	sw	zero,24(sp)
80000f68:	00014997          	auipc	s3,0x14
80000f6c:	40c98993          	addi	s3,s3,1036 # 80015374 <vmem>
80000f70:	00002917          	auipc	s2,0x2
80000f74:	8ac90913          	addi	s2,s2,-1876 # 8000281c <_etext+0x66c>
80000f78:	408484b3          	sub	s1,s1,s0
80000f7c:	00001a17          	auipc	s4,0x1
80000f80:	7f4a0a13          	addi	s4,s4,2036 # 80002770 <_etext+0x5c0>
80000f84:	00f12e23          	sw	a5,28(sp)
80000f88:	190000ef          	jal	80001118 <ioe_write>
80000f8c:	00c0006f          	j	80000f98 <devscan+0x228>
80000f90:	00240413          	addi	s0,s0,2
80000f94:	03340863          	beq	s0,s3,80000fc4 <devscan+0x254>
80000f98:	00144603          	lbu	a2,1(s0)
80000f9c:	00044583          	lbu	a1,0(s0)
80000fa0:	00090513          	mv	a0,s2
80000fa4:	1c9000ef          	jal	8000196c <printf>
80000fa8:	008487b3          	add	a5,s1,s0
80000fac:	01f7f793          	andi	a5,a5,31
80000fb0:	fe0790e3          	bnez	a5,80000f90 <devscan+0x220>
80000fb4:	000a0513          	mv	a0,s4
80000fb8:	00240413          	addi	s0,s0,2
80000fbc:	1b1000ef          	jal	8000196c <printf>
80000fc0:	fd341ce3          	bne	s0,s3,80000f98 <devscan+0x228>
80000fc4:	00002517          	auipc	a0,0x2
80000fc8:	86450513          	addi	a0,a0,-1948 # 80002828 <_etext+0x678>
80000fcc:	1a1000ef          	jal	8000196c <printf>
80000fd0:	0000006f          	j	80000fd0 <devscan+0x260>

80000fd4 <putch>:
80000fd4:	a00007b7          	lui	a5,0xa0000
80000fd8:	3ea78c23          	sb	a0,1016(a5) # a00003f8 <_end+0x1ff623f8>
80000fdc:	00008067          	ret

80000fe0 <halt>:
80000fe0:	00050513          	mv	a0,a0
80000fe4:	00100073          	ebreak
80000fe8:	0000006f          	j	80000fe8 <halt+0x8>

80000fec <_trm_init>:
80000fec:	ff010113          	addi	sp,sp,-16
80000ff0:	00002517          	auipc	a0,0x2
80000ff4:	0b050513          	addi	a0,a0,176 # 800030a0 <mainargs>
80000ff8:	00112623          	sw	ra,12(sp)
80000ffc:	814ff0ef          	jal	80000010 <main>
80001000:	00050513          	mv	a0,a0
80001004:	00100073          	ebreak
80001008:	0000006f          	j	80001008 <_trm_init+0x1c>

8000100c <__am_timer_config>:
8000100c:	00100793          	li	a5,1
80001010:	00f50023          	sb	a5,0(a0)
80001014:	00f500a3          	sb	a5,1(a0)
80001018:	00008067          	ret

8000101c <__am_input_config>:
8000101c:	00100793          	li	a5,1
80001020:	00f50023          	sb	a5,0(a0)
80001024:	00008067          	ret

80001028 <__am_uart_config>:
80001028:	00050023          	sb	zero,0(a0)
8000102c:	00008067          	ret

80001030 <__am_net_config>:
80001030:	00050023          	sb	zero,0(a0)
80001034:	00008067          	ret

80001038 <fail>:
80001038:	ff010113          	addi	sp,sp,-16
8000103c:	00812423          	sw	s0,8(sp)
80001040:	00112623          	sw	ra,12(sp)
80001044:	00001417          	auipc	s0,0x1
80001048:	25040413          	addi	s0,s0,592 # 80002294 <_etext+0xe4>
8000104c:	04100513          	li	a0,65
80001050:	f85ff0ef          	jal	80000fd4 <putch>
80001054:	00144503          	lbu	a0,1(s0)
80001058:	00140413          	addi	s0,s0,1
8000105c:	fe051ae3          	bnez	a0,80001050 <fail+0x18>
80001060:	00001417          	auipc	s0,0x1
80001064:	7d440413          	addi	s0,s0,2004 # 80002834 <_etext+0x684>
80001068:	06100513          	li	a0,97
8000106c:	f69ff0ef          	jal	80000fd4 <putch>
80001070:	00144503          	lbu	a0,1(s0)
80001074:	00140413          	addi	s0,s0,1
80001078:	fe051ae3          	bnez	a0,8000106c <fail+0x34>
8000107c:	00001417          	auipc	s0,0x1
80001080:	7d440413          	addi	s0,s0,2004 # 80002850 <_etext+0x6a0>
80001084:	02000513          	li	a0,32
80001088:	f4dff0ef          	jal	80000fd4 <putch>
8000108c:	00144503          	lbu	a0,1(s0)
80001090:	00140413          	addi	s0,s0,1
80001094:	fe051ae3          	bnez	a0,80001088 <fail+0x50>
80001098:	00100513          	li	a0,1
8000109c:	f45ff0ef          	jal	80000fe0 <halt>

800010a0 <ioe_init>:
800010a0:	ff010113          	addi	sp,sp,-16
800010a4:	00112623          	sw	ra,12(sp)
800010a8:	00010797          	auipc	a5,0x10
800010ac:	eb878793          	addi	a5,a5,-328 # 80010f60 <lut>
800010b0:	00010697          	auipc	a3,0x10
800010b4:	0b068693          	addi	a3,a3,176 # 80011160 <next>
800010b8:	00000617          	auipc	a2,0x0
800010bc:	f8060613          	addi	a2,a2,-128 # 80001038 <fail>
800010c0:	00c0006f          	j	800010cc <ioe_init+0x2c>
800010c4:	00478793          	addi	a5,a5,4
800010c8:	00d78c63          	beq	a5,a3,800010e0 <ioe_init+0x40>
800010cc:	0007a703          	lw	a4,0(a5)
800010d0:	fe071ae3          	bnez	a4,800010c4 <ioe_init+0x24>
800010d4:	00c7a023          	sw	a2,0(a5)
800010d8:	00478793          	addi	a5,a5,4
800010dc:	fed798e3          	bne	a5,a3,800010cc <ioe_init+0x2c>
800010e0:	0a4000ef          	jal	80001184 <__am_gpu_init>
800010e4:	050000ef          	jal	80001134 <__am_timer_init>
800010e8:	0dc000ef          	jal	800011c4 <__am_audio_init>
800010ec:	00c12083          	lw	ra,12(sp)
800010f0:	00100513          	li	a0,1
800010f4:	01010113          	addi	sp,sp,16
800010f8:	00008067          	ret

800010fc <ioe_read>:
800010fc:	00251513          	slli	a0,a0,0x2
80001100:	00010797          	auipc	a5,0x10
80001104:	e6078793          	addi	a5,a5,-416 # 80010f60 <lut>
80001108:	00a787b3          	add	a5,a5,a0
8000110c:	0007a783          	lw	a5,0(a5)
80001110:	00058513          	mv	a0,a1
80001114:	00078067          	jr	a5

80001118 <ioe_write>:
80001118:	00251513          	slli	a0,a0,0x2
8000111c:	00010797          	auipc	a5,0x10
80001120:	e4478793          	addi	a5,a5,-444 # 80010f60 <lut>
80001124:	00a787b3          	add	a5,a5,a0
80001128:	0007a783          	lw	a5,0(a5)
8000112c:	00058513          	mv	a0,a1
80001130:	00078067          	jr	a5

80001134 <__am_timer_init>:
80001134:	00008067          	ret

80001138 <__am_timer_uptime>:
80001138:	a0000737          	lui	a4,0xa0000
8000113c:	a00007b7          	lui	a5,0xa0000
80001140:	04c70713          	addi	a4,a4,76 # a000004c <_end+0x1ff6204c>
80001144:	0487a683          	lw	a3,72(a5) # a0000048 <_end+0x1ff62048>
80001148:	00072703          	lw	a4,0(a4)
8000114c:	00d52023          	sw	a3,0(a0)
80001150:	00e52223          	sw	a4,4(a0)
80001154:	00008067          	ret

80001158 <__am_timer_rtc>:
80001158:	76c00793          	li	a5,1900
8000115c:	00052a23          	sw	zero,20(a0)
80001160:	00052823          	sw	zero,16(a0)
80001164:	00052623          	sw	zero,12(a0)
80001168:	00052423          	sw	zero,8(a0)
8000116c:	00052223          	sw	zero,4(a0)
80001170:	00f52023          	sw	a5,0(a0)
80001174:	00008067          	ret

80001178 <__am_input_keybrd>:
80001178:	00050023          	sb	zero,0(a0)
8000117c:	00052223          	sw	zero,4(a0)
80001180:	00008067          	ret

80001184 <__am_gpu_init>:
80001184:	00008067          	ret

80001188 <__am_gpu_config>:
80001188:	00100793          	li	a5,1
8000118c:	00f51023          	sh	a5,0(a0)
80001190:	00052223          	sw	zero,4(a0)
80001194:	00052423          	sw	zero,8(a0)
80001198:	00052623          	sw	zero,12(a0)
8000119c:	00008067          	ret

800011a0 <__am_gpu_fbdraw>:
800011a0:	01454783          	lbu	a5,20(a0)
800011a4:	00078863          	beqz	a5,800011b4 <__am_gpu_fbdraw+0x14>
800011a8:	a00007b7          	lui	a5,0xa0000
800011ac:	00100713          	li	a4,1
800011b0:	10e7a223          	sw	a4,260(a5) # a0000104 <_end+0x1ff62104>
800011b4:	00008067          	ret

800011b8 <__am_gpu_status>:
800011b8:	00100793          	li	a5,1
800011bc:	00f50023          	sb	a5,0(a0)
800011c0:	00008067          	ret

800011c4 <__am_audio_init>:
800011c4:	00008067          	ret

800011c8 <__am_audio_config>:
800011c8:	00050023          	sb	zero,0(a0)
800011cc:	00008067          	ret

800011d0 <__am_audio_ctrl>:
800011d0:	00008067          	ret

800011d4 <__am_audio_status>:
800011d4:	00052023          	sw	zero,0(a0)
800011d8:	00008067          	ret

800011dc <__am_audio_play>:
800011dc:	00008067          	ret

800011e0 <__am_disk_config>:
800011e0:	00050023          	sb	zero,0(a0)
800011e4:	00008067          	ret

800011e8 <__am_disk_status>:
800011e8:	00008067          	ret

800011ec <__am_disk_blkio>:
800011ec:	00008067          	ret

800011f0 <mpe_init>:
800011f0:	ff010113          	addi	sp,sp,-16
800011f4:	00812423          	sw	s0,8(sp)
800011f8:	00112623          	sw	ra,12(sp)
800011fc:	000500e7          	jalr	a0
80001200:	00001417          	auipc	s0,0x1
80001204:	09440413          	addi	s0,s0,148 # 80002294 <_etext+0xe4>
80001208:	04100513          	li	a0,65
8000120c:	dc9ff0ef          	jal	80000fd4 <putch>
80001210:	00144503          	lbu	a0,1(s0)
80001214:	00140413          	addi	s0,s0,1
80001218:	fe051ae3          	bnez	a0,8000120c <mpe_init+0x1c>
8000121c:	00001417          	auipc	s0,0x1
80001220:	68c40413          	addi	s0,s0,1676 # 800028a8 <_etext+0x6f8>
80001224:	04d00513          	li	a0,77
80001228:	dadff0ef          	jal	80000fd4 <putch>
8000122c:	00144503          	lbu	a0,1(s0)
80001230:	00140413          	addi	s0,s0,1
80001234:	fe051ae3          	bnez	a0,80001228 <mpe_init+0x38>
80001238:	00001417          	auipc	s0,0x1
8000123c:	68440413          	addi	s0,s0,1668 # 800028bc <_etext+0x70c>
80001240:	02000513          	li	a0,32
80001244:	d91ff0ef          	jal	80000fd4 <putch>
80001248:	00144503          	lbu	a0,1(s0)
8000124c:	00140413          	addi	s0,s0,1
80001250:	fe051ae3          	bnez	a0,80001244 <mpe_init+0x54>
80001254:	00100513          	li	a0,1
80001258:	d89ff0ef          	jal	80000fe0 <halt>

8000125c <cpu_current>:
8000125c:	00000513          	li	a0,0
80001260:	00008067          	ret

80001264 <__am_irq_handle>:
80001264:	00094797          	auipc	a5,0x94
80001268:	1347a783          	lw	a5,308(a5) # 80095398 <user_handler>
8000126c:	00050593          	mv	a1,a0
80001270:	02078c63          	beqz	a5,800012a8 <__am_irq_handle+0x44>
80001274:	fd010113          	addi	sp,sp,-48
80001278:	00400713          	li	a4,4
8000127c:	02112623          	sw	ra,44(sp)
80001280:	00e12023          	sw	a4,0(sp)
80001284:	00012223          	sw	zero,4(sp)
80001288:	00012423          	sw	zero,8(sp)
8000128c:	00012623          	sw	zero,12(sp)
80001290:	00010513          	mv	a0,sp
80001294:	000780e7          	jalr	a5
80001298:	00050a63          	beqz	a0,800012ac <__am_irq_handle+0x48>
8000129c:	02c12083          	lw	ra,44(sp)
800012a0:	03010113          	addi	sp,sp,48
800012a4:	00008067          	ret
800012a8:	00008067          	ret
800012ac:	00f00613          	li	a2,15
800012b0:	00001597          	auipc	a1,0x1
800012b4:	65c58593          	addi	a1,a1,1628 # 8000290c <_etext+0x75c>
800012b8:	00001517          	auipc	a0,0x1
800012bc:	38450513          	addi	a0,a0,900 # 8000263c <_etext+0x48c>
800012c0:	6ac000ef          	jal	8000196c <printf>
800012c4:	00100513          	li	a0,1
800012c8:	d19ff0ef          	jal	80000fe0 <halt>

800012cc <cte_init>:
800012cc:	00050793          	mv	a5,a0
800012d0:	00000717          	auipc	a4,0x0
800012d4:	03070713          	addi	a4,a4,48 # 80001300 <__am_asm_trap>
800012d8:	30571073          	csrw	mtvec,a4
800012dc:	00100513          	li	a0,1
800012e0:	00094717          	auipc	a4,0x94
800012e4:	0af72c23          	sw	a5,184(a4) # 80095398 <user_handler>
800012e8:	00008067          	ret

800012ec <yield>:
800012ec:	fff00893          	li	a7,-1
800012f0:	00000073          	ecall
800012f4:	00008067          	ret

800012f8 <iset>:
800012f8:	00008067          	ret
800012fc:	0000                	.insn	2, 0x
	...

80001300 <__am_asm_trap>:
80001300:	f7410113          	addi	sp,sp,-140
80001304:	00112223          	sw	ra,4(sp)
80001308:	00312623          	sw	gp,12(sp)
8000130c:	00412823          	sw	tp,16(sp)
80001310:	00512a23          	sw	t0,20(sp)
80001314:	00612c23          	sw	t1,24(sp)
80001318:	00712e23          	sw	t2,28(sp)
8000131c:	02812023          	sw	s0,32(sp)
80001320:	02912223          	sw	s1,36(sp)
80001324:	02a12423          	sw	a0,40(sp)
80001328:	02b12623          	sw	a1,44(sp)
8000132c:	02c12823          	sw	a2,48(sp)
80001330:	02d12a23          	sw	a3,52(sp)
80001334:	02e12c23          	sw	a4,56(sp)
80001338:	02f12e23          	sw	a5,60(sp)
8000133c:	05012023          	sw	a6,64(sp)
80001340:	05112223          	sw	a7,68(sp)
80001344:	05212423          	sw	s2,72(sp)
80001348:	05312623          	sw	s3,76(sp)
8000134c:	05412823          	sw	s4,80(sp)
80001350:	05512a23          	sw	s5,84(sp)
80001354:	05612c23          	sw	s6,88(sp)
80001358:	05712e23          	sw	s7,92(sp)
8000135c:	07812023          	sw	s8,96(sp)
80001360:	07912223          	sw	s9,100(sp)
80001364:	07a12423          	sw	s10,104(sp)
80001368:	07b12623          	sw	s11,108(sp)
8000136c:	07c12823          	sw	t3,112(sp)
80001370:	07d12a23          	sw	t4,116(sp)
80001374:	07e12c23          	sw	t5,120(sp)
80001378:	07f12e23          	sw	t6,124(sp)
8000137c:	342022f3          	csrr	t0,mcause
80001380:	30002373          	csrr	t1,mstatus
80001384:	341023f3          	csrr	t2,mepc
80001388:	08512023          	sw	t0,128(sp)
8000138c:	08612223          	sw	t1,132(sp)
80001390:	08712423          	sw	t2,136(sp)
80001394:	00020537          	lui	a0,0x20
80001398:	00a36333          	or	t1,t1,a0
8000139c:	30031073          	csrw	mstatus,t1
800013a0:	00010513          	mv	a0,sp
800013a4:	ec1ff0ef          	jal	80001264 <__am_irq_handle>
800013a8:	08412303          	lw	t1,132(sp)
800013ac:	08812383          	lw	t2,136(sp)
800013b0:	30031073          	csrw	mstatus,t1
800013b4:	34139073          	csrw	mepc,t2
800013b8:	00412083          	lw	ra,4(sp)
800013bc:	00c12183          	lw	gp,12(sp)
800013c0:	01012203          	lw	tp,16(sp)
800013c4:	01412283          	lw	t0,20(sp)
800013c8:	01812303          	lw	t1,24(sp)
800013cc:	01c12383          	lw	t2,28(sp)
800013d0:	02012403          	lw	s0,32(sp)
800013d4:	02412483          	lw	s1,36(sp)
800013d8:	02812503          	lw	a0,40(sp)
800013dc:	02c12583          	lw	a1,44(sp)
800013e0:	03012603          	lw	a2,48(sp)
800013e4:	03412683          	lw	a3,52(sp)
800013e8:	03812703          	lw	a4,56(sp)
800013ec:	03c12783          	lw	a5,60(sp)
800013f0:	04012803          	lw	a6,64(sp)
800013f4:	04412883          	lw	a7,68(sp)
800013f8:	04812903          	lw	s2,72(sp)
800013fc:	04c12983          	lw	s3,76(sp)
80001400:	05012a03          	lw	s4,80(sp)
80001404:	05412a83          	lw	s5,84(sp)
80001408:	05812b03          	lw	s6,88(sp)
8000140c:	05c12b83          	lw	s7,92(sp)
80001410:	06012c03          	lw	s8,96(sp)
80001414:	06412c83          	lw	s9,100(sp)
80001418:	06812d03          	lw	s10,104(sp)
8000141c:	06c12d83          	lw	s11,108(sp)
80001420:	07012e03          	lw	t3,112(sp)
80001424:	07412e83          	lw	t4,116(sp)
80001428:	07812f03          	lw	t5,120(sp)
8000142c:	07c12f83          	lw	t6,124(sp)
80001430:	08c10113          	addi	sp,sp,140
80001434:	30200073          	mret

80001438 <vme_init>:
80001438:	ff010113          	addi	sp,sp,-16
8000143c:	00112623          	sw	ra,12(sp)
80001440:	00050793          	mv	a5,a0
80001444:	00001537          	lui	a0,0x1
80001448:	00094717          	auipc	a4,0x94
8000144c:	f4f72c23          	sw	a5,-168(a4) # 800953a0 <pgalloc_usr>
80001450:	000780e7          	jalr	a5
80001454:	00094717          	auipc	a4,0x94
80001458:	f2a72623          	sw	a0,-212(a4) # 80095380 <kas+0xc>
8000145c:	00c55793          	srli	a5,a0,0xc
80001460:	80000737          	lui	a4,0x80000
80001464:	00e7e7b3          	or	a5,a5,a4
80001468:	18079073          	csrw	satp,a5
8000146c:	00c12083          	lw	ra,12(sp)
80001470:	00100793          	li	a5,1
80001474:	00094717          	auipc	a4,0x94
80001478:	f2f72423          	sw	a5,-216(a4) # 8009539c <vme_enable>
8000147c:	00100513          	li	a0,1
80001480:	01010113          	addi	sp,sp,16
80001484:	00008067          	ret

80001488 <protect>:
80001488:	ff010113          	addi	sp,sp,-16
8000148c:	00812423          	sw	s0,8(sp)
80001490:	00112623          	sw	ra,12(sp)
80001494:	00050413          	mv	s0,a0
80001498:	00094797          	auipc	a5,0x94
8000149c:	f087a783          	lw	a5,-248(a5) # 800953a0 <pgalloc_usr>
800014a0:	00001537          	lui	a0,0x1
800014a4:	000780e7          	jalr	a5
800014a8:	400007b7          	lui	a5,0x40000
800014ac:	00f42223          	sw	a5,4(s0)
800014b0:	800007b7          	lui	a5,0x80000
800014b4:	00f42423          	sw	a5,8(s0)
800014b8:	000017b7          	lui	a5,0x1
800014bc:	00a42623          	sw	a0,12(s0)
800014c0:	00f42023          	sw	a5,0(s0)
800014c4:	00812403          	lw	s0,8(sp)
800014c8:	00c12083          	lw	ra,12(sp)
800014cc:	00094597          	auipc	a1,0x94
800014d0:	eb45a583          	lw	a1,-332(a1) # 80095380 <kas+0xc>
800014d4:	00001637          	lui	a2,0x1
800014d8:	01010113          	addi	sp,sp,16
800014dc:	4a50006f          	j	80002180 <memcpy>

800014e0 <map>:
800014e0:	00008067          	ret

800014e4 <ucontext>:
800014e4:	ff010113          	addi	sp,sp,-16
800014e8:	00000513          	li	a0,0
800014ec:	01010113          	addi	sp,sp,16
800014f0:	00008067          	ret

800014f4 <__udivmoddi4>:
800014f4:	fd010113          	addi	sp,sp,-48
800014f8:	01312e23          	sw	s3,28(sp)
800014fc:	01412c23          	sw	s4,24(sp)
80001500:	01612823          	sw	s6,16(sp)
80001504:	01712623          	sw	s7,12(sp)
80001508:	02112623          	sw	ra,44(sp)
8000150c:	00068b13          	mv	s6,a3
80001510:	00050993          	mv	s3,a0
80001514:	00060a13          	mv	s4,a2
80001518:	00070b93          	mv	s7,a4
8000151c:	02059e63          	bnez	a1,80001558 <__udivmoddi4+0x64>
80001520:	1a069263          	bnez	a3,800016c4 <__udivmoddi4+0x1d0>
80001524:	00070863          	beqz	a4,80001534 <__udivmoddi4+0x40>
80001528:	02c577b3          	remu	a5,a0,a2
8000152c:	00072223          	sw	zero,4(a4)
80001530:	00f72023          	sw	a5,0(a4)
80001534:	0349d533          	divu	a0,s3,s4
80001538:	00000593          	li	a1,0
8000153c:	02c12083          	lw	ra,44(sp)
80001540:	01c12983          	lw	s3,28(sp)
80001544:	01812a03          	lw	s4,24(sp)
80001548:	01012b03          	lw	s6,16(sp)
8000154c:	00c12b83          	lw	s7,12(sp)
80001550:	03010113          	addi	sp,sp,48
80001554:	00008067          	ret
80001558:	02912223          	sw	s1,36(sp)
8000155c:	03212023          	sw	s2,32(sp)
80001560:	01512a23          	sw	s5,20(sp)
80001564:	02812423          	sw	s0,40(sp)
80001568:	00058913          	mv	s2,a1
8000156c:	00058493          	mv	s1,a1
80001570:	00060a93          	mv	s5,a2
80001574:	0e061e63          	bnez	a2,80001670 <__udivmoddi4+0x17c>
80001578:	1c068063          	beqz	a3,80001738 <__udivmoddi4+0x244>
8000157c:	22050a63          	beqz	a0,800017b0 <__udivmoddi4+0x2bc>
80001580:	fff68793          	addi	a5,a3,-1
80001584:	00d7f733          	and	a4,a5,a3
80001588:	28070263          	beqz	a4,8000180c <__udivmoddi4+0x318>
8000158c:	00068513          	mv	a0,a3
80001590:	2d4000ef          	jal	80001864 <__clzsi2>
80001594:	00050413          	mv	s0,a0
80001598:	00090513          	mv	a0,s2
8000159c:	2c8000ef          	jal	80001864 <__clzsi2>
800015a0:	40a406b3          	sub	a3,s0,a0
800015a4:	01e00793          	li	a5,30
800015a8:	18d7ea63          	bltu	a5,a3,8000173c <__udivmoddi4+0x248>
800015ac:	00168693          	addi	a3,a3,1
800015b0:	02000793          	li	a5,32
800015b4:	40d787b3          	sub	a5,a5,a3
800015b8:	00f91633          	sll	a2,s2,a5
800015bc:	00d9d733          	srl	a4,s3,a3
800015c0:	00d95433          	srl	s0,s2,a3
800015c4:	00f99833          	sll	a6,s3,a5
800015c8:	00e664b3          	or	s1,a2,a4
800015cc:	00000713          	li	a4,0
800015d0:	01f85793          	srli	a5,a6,0x1f
800015d4:	00149593          	slli	a1,s1,0x1
800015d8:	00f5e5b3          	or	a1,a1,a5
800015dc:	01f4d493          	srli	s1,s1,0x1f
800015e0:	00141793          	slli	a5,s0,0x1
800015e4:	0097e7b3          	or	a5,a5,s1
800015e8:	40ba0333          	sub	t1,s4,a1
800015ec:	006a3633          	sltu	a2,s4,t1
800015f0:	40fb08b3          	sub	a7,s6,a5
800015f4:	40c888b3          	sub	a7,a7,a2
800015f8:	00133313          	seqz	t1,t1
800015fc:	406888b3          	sub	a7,a7,t1
80001600:	41f8d313          	srai	t1,a7,0x1f
80001604:	014374b3          	and	s1,t1,s4
80001608:	409584b3          	sub	s1,a1,s1
8000160c:	01637333          	and	t1,t1,s6
80001610:	01fad613          	srli	a2,s5,0x1f
80001614:	00181813          	slli	a6,a6,0x1
80001618:	001a9a93          	slli	s5,s5,0x1
8000161c:	0095b5b3          	sltu	a1,a1,s1
80001620:	406787b3          	sub	a5,a5,t1
80001624:	fff68693          	addi	a3,a3,-1
80001628:	00eaeab3          	or	s5,s5,a4
8000162c:	00c86833          	or	a6,a6,a2
80001630:	01f8d713          	srli	a4,a7,0x1f
80001634:	40b78433          	sub	s0,a5,a1
80001638:	f8069ce3          	bnez	a3,800015d0 <__udivmoddi4+0xdc>
8000163c:	000b8663          	beqz	s7,80001648 <__udivmoddi4+0x154>
80001640:	009ba023          	sw	s1,0(s7)
80001644:	008ba223          	sw	s0,4(s7)
80001648:	01fad913          	srli	s2,s5,0x1f
8000164c:	001a9993          	slli	s3,s5,0x1
80001650:	00181793          	slli	a5,a6,0x1
80001654:	00f965b3          	or	a1,s2,a5
80001658:	02812403          	lw	s0,40(sp)
8000165c:	02412483          	lw	s1,36(sp)
80001660:	02012903          	lw	s2,32(sp)
80001664:	01412a83          	lw	s5,20(sp)
80001668:	00e9e533          	or	a0,s3,a4
8000166c:	ed1ff06f          	j	8000153c <__udivmoddi4+0x48>
80001670:	06068663          	beqz	a3,800016dc <__udivmoddi4+0x1e8>
80001674:	00068513          	mv	a0,a3
80001678:	1ec000ef          	jal	80001864 <__clzsi2>
8000167c:	00050413          	mv	s0,a0
80001680:	00090513          	mv	a0,s2
80001684:	1e0000ef          	jal	80001864 <__clzsi2>
80001688:	40a406b3          	sub	a3,s0,a0
8000168c:	01f00793          	li	a5,31
80001690:	0ad7e663          	bltu	a5,a3,8000173c <__udivmoddi4+0x248>
80001694:	00168693          	addi	a3,a3,1
80001698:	02000793          	li	a5,32
8000169c:	00098813          	mv	a6,s3
800016a0:	18f68663          	beq	a3,a5,8000182c <__udivmoddi4+0x338>
800016a4:	40d787b3          	sub	a5,a5,a3
800016a8:	00d9d733          	srl	a4,s3,a3
800016ac:	00f91633          	sll	a2,s2,a5
800016b0:	00d95433          	srl	s0,s2,a3
800016b4:	00f99833          	sll	a6,s3,a5
800016b8:	00e664b3          	or	s1,a2,a4
800016bc:	00000a93          	li	s5,0
800016c0:	f0dff06f          	j	800015cc <__udivmoddi4+0xd8>
800016c4:	00070663          	beqz	a4,800016d0 <__udivmoddi4+0x1dc>
800016c8:	00aba023          	sw	a0,0(s7)
800016cc:	00072223          	sw	zero,4(a4)
800016d0:	00000513          	li	a0,0
800016d4:	00000593          	li	a1,0
800016d8:	e65ff06f          	j	8000153c <__udivmoddi4+0x48>
800016dc:	fff60793          	addi	a5,a2,-1 # fff <_entry_offset+0xfff>
800016e0:	00c7f733          	and	a4,a5,a2
800016e4:	06071c63          	bnez	a4,8000175c <__udivmoddi4+0x268>
800016e8:	000b8863          	beqz	s7,800016f8 <__udivmoddi4+0x204>
800016ec:	00a7f7b3          	and	a5,a5,a0
800016f0:	00fba023          	sw	a5,0(s7)
800016f4:	000ba223          	sw	zero,4(s7)
800016f8:	00100793          	li	a5,1
800016fc:	0efa0063          	beq	s4,a5,800017dc <__udivmoddi4+0x2e8>
80001700:	000a0513          	mv	a0,s4
80001704:	1f0000ef          	jal	800018f4 <__ctzsi2>
80001708:	02000713          	li	a4,32
8000170c:	40a70733          	sub	a4,a4,a0
80001710:	00050793          	mv	a5,a0
80001714:	00e91733          	sll	a4,s2,a4
80001718:	00a9d833          	srl	a6,s3,a0
8000171c:	00f955b3          	srl	a1,s2,a5
80001720:	02812403          	lw	s0,40(sp)
80001724:	02412483          	lw	s1,36(sp)
80001728:	02012903          	lw	s2,32(sp)
8000172c:	01412a83          	lw	s5,20(sp)
80001730:	01076533          	or	a0,a4,a6
80001734:	e09ff06f          	j	8000153c <__udivmoddi4+0x48>
80001738:	00100073          	ebreak
8000173c:	0a0b8e63          	beqz	s7,800017f8 <__udivmoddi4+0x304>
80001740:	012ba223          	sw	s2,4(s7)
80001744:	02812403          	lw	s0,40(sp)
80001748:	02412483          	lw	s1,36(sp)
8000174c:	02012903          	lw	s2,32(sp)
80001750:	01412a83          	lw	s5,20(sp)
80001754:	013ba023          	sw	s3,0(s7)
80001758:	f79ff06f          	j	800016d0 <__udivmoddi4+0x1dc>
8000175c:	00060513          	mv	a0,a2
80001760:	00068413          	mv	s0,a3
80001764:	100000ef          	jal	80001864 <__clzsi2>
80001768:	00050913          	mv	s2,a0
8000176c:	00048513          	mv	a0,s1
80001770:	0f4000ef          	jal	80001864 <__clzsi2>
80001774:	40a90533          	sub	a0,s2,a0
80001778:	02150693          	addi	a3,a0,33 # 1021 <_entry_offset+0x1021>
8000177c:	02000793          	li	a5,32
80001780:	00098813          	mv	a6,s3
80001784:	00000a93          	li	s5,0
80001788:	e4f682e3          	beq	a3,a5,800015cc <__udivmoddi4+0xd8>
8000178c:	01f00713          	li	a4,31
80001790:	0ad76463          	bltu	a4,a3,80001838 <__udivmoddi4+0x344>
80001794:	40d78733          	sub	a4,a5,a3
80001798:	00d4d433          	srl	s0,s1,a3
8000179c:	00d9d7b3          	srl	a5,s3,a3
800017a0:	00e494b3          	sll	s1,s1,a4
800017a4:	00f4e4b3          	or	s1,s1,a5
800017a8:	00e99833          	sll	a6,s3,a4
800017ac:	e21ff06f          	j	800015cc <__udivmoddi4+0xd8>
800017b0:	00070863          	beqz	a4,800017c0 <__udivmoddi4+0x2cc>
800017b4:	02d5f7b3          	remu	a5,a1,a3
800017b8:	00072023          	sw	zero,0(a4)
800017bc:	00f72223          	sw	a5,4(a4)
800017c0:	03695533          	divu	a0,s2,s6
800017c4:	02812403          	lw	s0,40(sp)
800017c8:	02412483          	lw	s1,36(sp)
800017cc:	02012903          	lw	s2,32(sp)
800017d0:	01412a83          	lw	s5,20(sp)
800017d4:	00000593          	li	a1,0
800017d8:	d65ff06f          	j	8000153c <__udivmoddi4+0x48>
800017dc:	00090593          	mv	a1,s2
800017e0:	02812403          	lw	s0,40(sp)
800017e4:	02412483          	lw	s1,36(sp)
800017e8:	02012903          	lw	s2,32(sp)
800017ec:	01412a83          	lw	s5,20(sp)
800017f0:	00098513          	mv	a0,s3
800017f4:	d49ff06f          	j	8000153c <__udivmoddi4+0x48>
800017f8:	02812403          	lw	s0,40(sp)
800017fc:	02412483          	lw	s1,36(sp)
80001800:	02012903          	lw	s2,32(sp)
80001804:	01412a83          	lw	s5,20(sp)
80001808:	ec9ff06f          	j	800016d0 <__udivmoddi4+0x1dc>
8000180c:	000b8863          	beqz	s7,8000181c <__udivmoddi4+0x328>
80001810:	00b7f7b3          	and	a5,a5,a1
80001814:	00aba023          	sw	a0,0(s7)
80001818:	00fba223          	sw	a5,4(s7)
8000181c:	000b0513          	mv	a0,s6
80001820:	0d4000ef          	jal	800018f4 <__ctzsi2>
80001824:	00a95533          	srl	a0,s2,a0
80001828:	f9dff06f          	j	800017c4 <__udivmoddi4+0x2d0>
8000182c:	00000413          	li	s0,0
80001830:	00000a93          	li	s5,0
80001834:	d99ff06f          	j	800015cc <__udivmoddi4+0xd8>
80001838:	04000a93          	li	s5,64
8000183c:	40da8ab3          	sub	s5,s5,a3
80001840:	00150513          	addi	a0,a0,1
80001844:	01549733          	sll	a4,s1,s5
80001848:	00a9d7b3          	srl	a5,s3,a0
8000184c:	01599ab3          	sll	s5,s3,s5
80001850:	00a4d4b3          	srl	s1,s1,a0
80001854:	00f76833          	or	a6,a4,a5
80001858:	d75ff06f          	j	800015cc <__udivmoddi4+0xd8>

8000185c <__udivdi3>:
8000185c:	00000713          	li	a4,0
80001860:	c95ff06f          	j	800014f4 <__udivmoddi4>

80001864 <__clzsi2>:
80001864:	000105b7          	lui	a1,0x10
80001868:	00b535b3          	sltu	a1,a0,a1
8000186c:	00459593          	slli	a1,a1,0x4
80001870:	01000793          	li	a5,16
80001874:	40b787b3          	sub	a5,a5,a1
80001878:	00010737          	lui	a4,0x10
8000187c:	00f557b3          	srl	a5,a0,a5
80001880:	f0070713          	addi	a4,a4,-256 # ff00 <_entry_offset+0xff00>
80001884:	00e7f733          	and	a4,a5,a4
80001888:	00173713          	seqz	a4,a4
8000188c:	00371713          	slli	a4,a4,0x3
80001890:	00800693          	li	a3,8
80001894:	40e686b3          	sub	a3,a3,a4
80001898:	00d7d7b3          	srl	a5,a5,a3
8000189c:	0f07f613          	andi	a2,a5,240
800018a0:	00163613          	seqz	a2,a2
800018a4:	00261613          	slli	a2,a2,0x2
800018a8:	00400693          	li	a3,4
800018ac:	40c686b3          	sub	a3,a3,a2
800018b0:	00d7d7b3          	srl	a5,a5,a3
800018b4:	00c7f693          	andi	a3,a5,12
800018b8:	0016b693          	seqz	a3,a3
800018bc:	00200513          	li	a0,2
800018c0:	00169693          	slli	a3,a3,0x1
800018c4:	40d50833          	sub	a6,a0,a3
800018c8:	0107d7b3          	srl	a5,a5,a6
800018cc:	0017d813          	srli	a6,a5,0x1
800018d0:	00b70733          	add	a4,a4,a1
800018d4:	00187593          	andi	a1,a6,1
800018d8:	00e60633          	add	a2,a2,a4
800018dc:	40f50533          	sub	a0,a0,a5
800018e0:	00058463          	beqz	a1,800018e8 <__clzsi2+0x84>
800018e4:	00000513          	li	a0,0
800018e8:	00c686b3          	add	a3,a3,a2
800018ec:	00d50533          	add	a0,a0,a3
800018f0:	00008067          	ret

800018f4 <__ctzsi2>:
800018f4:	01051593          	slli	a1,a0,0x10
800018f8:	0105d593          	srli	a1,a1,0x10
800018fc:	0015b593          	seqz	a1,a1
80001900:	00459593          	slli	a1,a1,0x4
80001904:	00b557b3          	srl	a5,a0,a1
80001908:	0ff7f613          	zext.b	a2,a5
8000190c:	00163613          	seqz	a2,a2
80001910:	00361613          	slli	a2,a2,0x3
80001914:	00c7d7b3          	srl	a5,a5,a2
80001918:	00f7f693          	andi	a3,a5,15
8000191c:	0016b693          	seqz	a3,a3
80001920:	00269693          	slli	a3,a3,0x2
80001924:	00d7d7b3          	srl	a5,a5,a3
80001928:	0037f713          	andi	a4,a5,3
8000192c:	00173713          	seqz	a4,a4
80001930:	00171713          	slli	a4,a4,0x1
80001934:	00e7d7b3          	srl	a5,a5,a4
80001938:	0017d513          	srli	a0,a5,0x1
8000193c:	fff7c793          	not	a5,a5
80001940:	00b60633          	add	a2,a2,a1
80001944:	0017f793          	andi	a5,a5,1
80001948:	00157593          	andi	a1,a0,1
8000194c:	00200513          	li	a0,2
80001950:	00c686b3          	add	a3,a3,a2
80001954:	40b50533          	sub	a0,a0,a1
80001958:	40f007b3          	neg	a5,a5
8000195c:	00f57533          	and	a0,a0,a5
80001960:	00d70733          	add	a4,a4,a3
80001964:	00e50533          	add	a0,a0,a4
80001968:	00008067          	ret

8000196c <printf>:
8000196c:	e9010113          	addi	sp,sp,-368
80001970:	13312e23          	sw	s3,316(sp)
80001974:	01010993          	addi	s3,sp,16
80001978:	14812423          	sw	s0,328(sp)
8000197c:	16e12023          	sw	a4,352(sp)
80001980:	16f12223          	sw	a5,356(sp)
80001984:	14112623          	sw	ra,332(sp)
80001988:	14912223          	sw	s1,324(sp)
8000198c:	00050413          	mv	s0,a0
80001990:	14b12a23          	sw	a1,340(sp)
80001994:	14c12c23          	sw	a2,344(sp)
80001998:	14d12e23          	sw	a3,348(sp)
8000199c:	17012423          	sw	a6,360(sp)
800019a0:	17112623          	sw	a7,364(sp)
800019a4:	00098793          	mv	a5,s3
800019a8:	11010713          	addi	a4,sp,272
800019ac:	0007a023          	sw	zero,0(a5) # 1000 <_entry_offset+0x1000>
800019b0:	00478793          	addi	a5,a5,4
800019b4:	fef71ce3          	bne	a4,a5,800019ac <printf+0x40>
800019b8:	00044783          	lbu	a5,0(s0)
800019bc:	15410713          	addi	a4,sp,340
800019c0:	00e12623          	sw	a4,12(sp)
800019c4:	36078863          	beqz	a5,80001d34 <printf+0x3c8>
800019c8:	13412c23          	sw	s4,312(sp)
800019cc:	13512a23          	sw	s5,308(sp)
800019d0:	13612823          	sw	s6,304(sp)
800019d4:	13712623          	sw	s7,300(sp)
800019d8:	13812423          	sw	s8,296(sp)
800019dc:	13912223          	sw	s9,292(sp)
800019e0:	15212023          	sw	s2,320(sp)
800019e4:	13a12023          	sw	s10,288(sp)
800019e8:	11b12e23          	sw	s11,284(sp)
800019ec:	00098493          	mv	s1,s3
800019f0:	02500c93          	li	s9,37
800019f4:	07800a13          	li	s4,120
800019f8:	06200a93          	li	s5,98
800019fc:	06400c13          	li	s8,100
80001a00:	01500b93          	li	s7,21
80001a04:	00001b17          	auipc	s6,0x1
80001a08:	6dcb0b13          	addi	s6,s6,1756 # 800030e0 <mainargs+0x40>
80001a0c:	01c0006f          	j	80001a28 <printf+0xbc>
80001a10:	00f48023          	sb	a5,0(s1)
80001a14:	00040913          	mv	s2,s0
80001a18:	00148493          	addi	s1,s1,1
80001a1c:	00194783          	lbu	a5,1(s2)
80001a20:	00190413          	addi	s0,s2,1
80001a24:	08078e63          	beqz	a5,80001ac0 <printf+0x154>
80001a28:	00144703          	lbu	a4,1(s0)
80001a2c:	00140913          	addi	s2,s0,1
80001a30:	ff9790e3          	bne	a5,s9,80001a10 <printf+0xa4>
80001a34:	38ea6463          	bltu	s4,a4,80001dbc <printf+0x450>
80001a38:	16eaf863          	bgeu	s5,a4,80001ba8 <printf+0x23c>
80001a3c:	f9d70793          	addi	a5,a4,-99
80001a40:	0ff7f793          	zext.b	a5,a5
80001a44:	00fbec63          	bltu	s7,a5,80001a5c <printf+0xf0>
80001a48:	00279793          	slli	a5,a5,0x2
80001a4c:	016787b3          	add	a5,a5,s6
80001a50:	0007a783          	lw	a5,0(a5)
80001a54:	016787b3          	add	a5,a5,s6
80001a58:	00078067          	jr	a5
80001a5c:	fd070d13          	addi	s10,a4,-48
80001a60:	0ffd7713          	zext.b	a4,s10
80001a64:	00900793          	li	a5,9
80001a68:	34e7ea63          	bltu	a5,a4,80001dbc <printf+0x450>
80001a6c:	00c12783          	lw	a5,12(sp)
80001a70:	00244703          	lbu	a4,2(s0)
80001a74:	00240913          	addi	s2,s0,2
80001a78:	00478613          	addi	a2,a5,4
80001a7c:	00c12623          	sw	a2,12(sp)
80001a80:	0007ad83          	lw	s11,0(a5)
80001a84:	1d470c63          	beq	a4,s4,80001c5c <printf+0x2f0>
80001a88:	2b871c63          	bne	a4,s8,80001d40 <printf+0x3d4>
80001a8c:	00a00613          	li	a2,10
80001a90:	00048593          	mv	a1,s1
80001a94:	000d8513          	mv	a0,s11
80001a98:	48c000ef          	jal	80001f24 <itoa>
80001a9c:	21a54e63          	blt	a0,s10,80001cb8 <printf+0x34c>
80001aa0:	00048593          	mv	a1,s1
80001aa4:	00a00613          	li	a2,10
80001aa8:	000d8513          	mv	a0,s11
80001aac:	478000ef          	jal	80001f24 <itoa>
80001ab0:	00194783          	lbu	a5,1(s2)
80001ab4:	00a484b3          	add	s1,s1,a0
80001ab8:	00190413          	addi	s0,s2,1
80001abc:	f60796e3          	bnez	a5,80001a28 <printf+0xbc>
80001ac0:	14012903          	lw	s2,320(sp)
80001ac4:	13812a03          	lw	s4,312(sp)
80001ac8:	13412a83          	lw	s5,308(sp)
80001acc:	13012b03          	lw	s6,304(sp)
80001ad0:	12c12b83          	lw	s7,300(sp)
80001ad4:	12812c03          	lw	s8,296(sp)
80001ad8:	12412c83          	lw	s9,292(sp)
80001adc:	12012d03          	lw	s10,288(sp)
80001ae0:	11c12d83          	lw	s11,284(sp)
80001ae4:	41348433          	sub	s0,s1,s3
80001ae8:	00048023          	sb	zero,0(s1)
80001aec:	01014503          	lbu	a0,16(sp)
80001af0:	00050a63          	beqz	a0,80001b04 <printf+0x198>
80001af4:	ce0ff0ef          	jal	80000fd4 <putch>
80001af8:	0019c503          	lbu	a0,1(s3)
80001afc:	00198993          	addi	s3,s3,1
80001b00:	fe051ae3          	bnez	a0,80001af4 <printf+0x188>
80001b04:	14c12083          	lw	ra,332(sp)
80001b08:	00040513          	mv	a0,s0
80001b0c:	14812403          	lw	s0,328(sp)
80001b10:	14412483          	lw	s1,324(sp)
80001b14:	13c12983          	lw	s3,316(sp)
80001b18:	17010113          	addi	sp,sp,368
80001b1c:	00008067          	ret
80001b20:	00244783          	lbu	a5,2(s0)
80001b24:	00240913          	addi	s2,s0,2
80001b28:	03878863          	beq	a5,s8,80001b58 <printf+0x1ec>
80001b2c:	07800713          	li	a4,120
80001b30:	36e79e63          	bne	a5,a4,80001eac <printf+0x540>
80001b34:	00c12783          	lw	a5,12(sp)
80001b38:	01000613          	li	a2,16
80001b3c:	0007a503          	lw	a0,0(a5)
80001b40:	00048593          	mv	a1,s1
80001b44:	00478793          	addi	a5,a5,4
80001b48:	00f12623          	sw	a5,12(sp)
80001b4c:	3d8000ef          	jal	80001f24 <itoa>
80001b50:	00a484b3          	add	s1,s1,a0
80001b54:	ec9ff06f          	j	80001a1c <printf+0xb0>
80001b58:	00c12783          	lw	a5,12(sp)
80001b5c:	00a00613          	li	a2,10
80001b60:	fddff06f          	j	80001b3c <printf+0x1d0>
80001b64:	00c12783          	lw	a5,12(sp)
80001b68:	00148493          	addi	s1,s1,1
80001b6c:	0007a703          	lw	a4,0(a5)
80001b70:	00478793          	addi	a5,a5,4
80001b74:	00f12623          	sw	a5,12(sp)
80001b78:	fee48fa3          	sb	a4,-1(s1)
80001b7c:	ea1ff06f          	j	80001a1c <printf+0xb0>
80001b80:	00c12783          	lw	a5,12(sp)
80001b84:	00048513          	mv	a0,s1
80001b88:	0007a583          	lw	a1,0(a5)
80001b8c:	00478793          	addi	a5,a5,4
80001b90:	00f12623          	sw	a5,12(sp)
80001b94:	4f8000ef          	jal	8000208c <strcpy>
80001b98:	00048513          	mv	a0,s1
80001b9c:	4bc000ef          	jal	80002058 <strlen>
80001ba0:	00a484b3          	add	s1,s1,a0
80001ba4:	e79ff06f          	j	80001a1c <printf+0xb0>
80001ba8:	06f70e63          	beq	a4,a5,80001c24 <printf+0x2b8>
80001bac:	03000793          	li	a5,48
80001bb0:	eaf716e3          	bne	a4,a5,80001a5c <printf+0xf0>
80001bb4:	00c12783          	lw	a5,12(sp)
80001bb8:	00244d03          	lbu	s10,2(s0)
80001bbc:	00344703          	lbu	a4,3(s0)
80001bc0:	00478613          	addi	a2,a5,4
80001bc4:	00c12623          	sw	a2,12(sp)
80001bc8:	0007ad83          	lw	s11,0(a5)
80001bcc:	fd0d0d13          	addi	s10,s10,-48
80001bd0:	00340913          	addi	s2,s0,3
80001bd4:	05470e63          	beq	a4,s4,80001c30 <printf+0x2c4>
80001bd8:	25871e63          	bne	a4,s8,80001e34 <printf+0x4c8>
80001bdc:	00a00613          	li	a2,10
80001be0:	00048593          	mv	a1,s1
80001be4:	000d8513          	mv	a0,s11
80001be8:	33c000ef          	jal	80001f24 <itoa>
80001bec:	eba55ae3          	bge	a0,s10,80001aa0 <printf+0x134>
80001bf0:	00000413          	li	s0,0
80001bf4:	0140006f          	j	80001c08 <printf+0x29c>
80001bf8:	03000793          	li	a5,48
80001bfc:	00f48023          	sb	a5,0(s1)
80001c00:	00140413          	addi	s0,s0,1
80001c04:	00148493          	addi	s1,s1,1
80001c08:	00a00613          	li	a2,10
80001c0c:	00048593          	mv	a1,s1
80001c10:	000d8513          	mv	a0,s11
80001c14:	310000ef          	jal	80001f24 <itoa>
80001c18:	40ad0533          	sub	a0,s10,a0
80001c1c:	fca44ee3          	blt	s0,a0,80001bf8 <printf+0x28c>
80001c20:	e81ff06f          	j	80001aa0 <printf+0x134>
80001c24:	01948023          	sb	s9,0(s1)
80001c28:	00148493          	addi	s1,s1,1
80001c2c:	df1ff06f          	j	80001a1c <printf+0xb0>
80001c30:	01000613          	li	a2,16
80001c34:	00048593          	mv	a1,s1
80001c38:	000d8513          	mv	a0,s11
80001c3c:	2e8000ef          	jal	80001f24 <itoa>
80001c40:	0ba54663          	blt	a0,s10,80001cec <printf+0x380>
80001c44:	00048593          	mv	a1,s1
80001c48:	01000613          	li	a2,16
80001c4c:	000d8513          	mv	a0,s11
80001c50:	2d4000ef          	jal	80001f24 <itoa>
80001c54:	00a484b3          	add	s1,s1,a0
80001c58:	dc5ff06f          	j	80001a1c <printf+0xb0>
80001c5c:	01000613          	li	a2,16
80001c60:	00048593          	mv	a1,s1
80001c64:	000d8513          	mv	a0,s11
80001c68:	2bc000ef          	jal	80001f24 <itoa>
80001c6c:	fda55ce3          	bge	a0,s10,80001c44 <printf+0x2d8>
80001c70:	00000413          	li	s0,0
80001c74:	0140006f          	j	80001c88 <printf+0x31c>
80001c78:	02000793          	li	a5,32
80001c7c:	00f48023          	sb	a5,0(s1)
80001c80:	00140413          	addi	s0,s0,1
80001c84:	00148493          	addi	s1,s1,1
80001c88:	01000613          	li	a2,16
80001c8c:	00048593          	mv	a1,s1
80001c90:	000d8513          	mv	a0,s11
80001c94:	290000ef          	jal	80001f24 <itoa>
80001c98:	40ad07b3          	sub	a5,s10,a0
80001c9c:	fcf44ee3          	blt	s0,a5,80001c78 <printf+0x30c>
80001ca0:	00048593          	mv	a1,s1
80001ca4:	01000613          	li	a2,16
80001ca8:	000d8513          	mv	a0,s11
80001cac:	278000ef          	jal	80001f24 <itoa>
80001cb0:	00a484b3          	add	s1,s1,a0
80001cb4:	d69ff06f          	j	80001a1c <printf+0xb0>
80001cb8:	00000413          	li	s0,0
80001cbc:	0140006f          	j	80001cd0 <printf+0x364>
80001cc0:	02000793          	li	a5,32
80001cc4:	00f48023          	sb	a5,0(s1)
80001cc8:	00140413          	addi	s0,s0,1
80001ccc:	00148493          	addi	s1,s1,1
80001cd0:	00a00613          	li	a2,10
80001cd4:	00048593          	mv	a1,s1
80001cd8:	000d8513          	mv	a0,s11
80001cdc:	248000ef          	jal	80001f24 <itoa>
80001ce0:	40ad0533          	sub	a0,s10,a0
80001ce4:	fca44ee3          	blt	s0,a0,80001cc0 <printf+0x354>
80001ce8:	db9ff06f          	j	80001aa0 <printf+0x134>
80001cec:	00000413          	li	s0,0
80001cf0:	0140006f          	j	80001d04 <printf+0x398>
80001cf4:	03000793          	li	a5,48
80001cf8:	00f48023          	sb	a5,0(s1)
80001cfc:	00140413          	addi	s0,s0,1
80001d00:	00148493          	addi	s1,s1,1
80001d04:	01000613          	li	a2,16
80001d08:	00048593          	mv	a1,s1
80001d0c:	000d8513          	mv	a0,s11
80001d10:	214000ef          	jal	80001f24 <itoa>
80001d14:	40ad07b3          	sub	a5,s10,a0
80001d18:	fcf44ee3          	blt	s0,a5,80001cf4 <printf+0x388>
80001d1c:	00048593          	mv	a1,s1
80001d20:	01000613          	li	a2,16
80001d24:	000d8513          	mv	a0,s11
80001d28:	1fc000ef          	jal	80001f24 <itoa>
80001d2c:	00a484b3          	add	s1,s1,a0
80001d30:	cedff06f          	j	80001a1c <printf+0xb0>
80001d34:	00000413          	li	s0,0
80001d38:	00098493          	mv	s1,s3
80001d3c:	dadff06f          	j	80001ae8 <printf+0x17c>
80001d40:	06500513          	li	a0,101
80001d44:	a90ff0ef          	jal	80000fd4 <putch>
80001d48:	00a00513          	li	a0,10
80001d4c:	a88ff0ef          	jal	80000fd4 <putch>
80001d50:	00244503          	lbu	a0,2(s0)
80001d54:	00000417          	auipc	s0,0x0
80001d58:	54040413          	addi	s0,s0,1344 # 80002294 <_etext+0xe4>
80001d5c:	a78ff0ef          	jal	80000fd4 <putch>
80001d60:	00a00513          	li	a0,10
80001d64:	a70ff0ef          	jal	80000fd4 <putch>
80001d68:	04100513          	li	a0,65
80001d6c:	a68ff0ef          	jal	80000fd4 <putch>
80001d70:	00144503          	lbu	a0,1(s0)
80001d74:	00140413          	addi	s0,s0,1
80001d78:	fe051ae3          	bnez	a0,80001d6c <printf+0x400>
80001d7c:	00001417          	auipc	s0,0x1
80001d80:	c9440413          	addi	s0,s0,-876 # 80002a10 <_etext+0x860>
80001d84:	00a00513          	li	a0,10
80001d88:	a4cff0ef          	jal	80000fd4 <putch>
80001d8c:	00144503          	lbu	a0,1(s0)
80001d90:	00140413          	addi	s0,s0,1
80001d94:	fe051ae3          	bnez	a0,80001d88 <printf+0x41c>
80001d98:	00001417          	auipc	s0,0x1
80001d9c:	c8c40413          	addi	s0,s0,-884 # 80002a24 <_etext+0x874>
80001da0:	02000513          	li	a0,32
80001da4:	a30ff0ef          	jal	80000fd4 <putch>
80001da8:	00144503          	lbu	a0,1(s0)
80001dac:	00140413          	addi	s0,s0,1
80001db0:	fe051ae3          	bnez	a0,80001da4 <printf+0x438>
80001db4:	00100513          	li	a0,1
80001db8:	a28ff0ef          	jal	80000fe0 <halt>
80001dbc:	06500513          	li	a0,101
80001dc0:	a14ff0ef          	jal	80000fd4 <putch>
80001dc4:	00a00513          	li	a0,10
80001dc8:	a0cff0ef          	jal	80000fd4 <putch>
80001dcc:	00144503          	lbu	a0,1(s0)
80001dd0:	00000417          	auipc	s0,0x0
80001dd4:	4c440413          	addi	s0,s0,1220 # 80002294 <_etext+0xe4>
80001dd8:	9fcff0ef          	jal	80000fd4 <putch>
80001ddc:	00a00513          	li	a0,10
80001de0:	9f4ff0ef          	jal	80000fd4 <putch>
80001de4:	04100513          	li	a0,65
80001de8:	9ecff0ef          	jal	80000fd4 <putch>
80001dec:	00144503          	lbu	a0,1(s0)
80001df0:	00140413          	addi	s0,s0,1
80001df4:	fe051ae3          	bnez	a0,80001de8 <printf+0x47c>
80001df8:	00001417          	auipc	s0,0x1
80001dfc:	c7440413          	addi	s0,s0,-908 # 80002a6c <_etext+0x8bc>
80001e00:	00a00513          	li	a0,10
80001e04:	9d0ff0ef          	jal	80000fd4 <putch>
80001e08:	00144503          	lbu	a0,1(s0)
80001e0c:	00140413          	addi	s0,s0,1
80001e10:	fe051ae3          	bnez	a0,80001e04 <printf+0x498>
80001e14:	00001417          	auipc	s0,0x1
80001e18:	c7440413          	addi	s0,s0,-908 # 80002a88 <_etext+0x8d8>
80001e1c:	02000513          	li	a0,32
80001e20:	9b4ff0ef          	jal	80000fd4 <putch>
80001e24:	00144503          	lbu	a0,1(s0)
80001e28:	00140413          	addi	s0,s0,1
80001e2c:	fe051ae3          	bnez	a0,80001e20 <printf+0x4b4>
80001e30:	f85ff06f          	j	80001db4 <printf+0x448>
80001e34:	06500513          	li	a0,101
80001e38:	99cff0ef          	jal	80000fd4 <putch>
80001e3c:	00a00513          	li	a0,10
80001e40:	994ff0ef          	jal	80000fd4 <putch>
80001e44:	00344503          	lbu	a0,3(s0)
80001e48:	00000417          	auipc	s0,0x0
80001e4c:	44c40413          	addi	s0,s0,1100 # 80002294 <_etext+0xe4>
80001e50:	984ff0ef          	jal	80000fd4 <putch>
80001e54:	00a00513          	li	a0,10
80001e58:	97cff0ef          	jal	80000fd4 <putch>
80001e5c:	04100513          	li	a0,65
80001e60:	974ff0ef          	jal	80000fd4 <putch>
80001e64:	00144503          	lbu	a0,1(s0)
80001e68:	00140413          	addi	s0,s0,1
80001e6c:	fe051ae3          	bnez	a0,80001e60 <printf+0x4f4>
80001e70:	00001417          	auipc	s0,0x1
80001e74:	b4440413          	addi	s0,s0,-1212 # 800029b4 <_etext+0x804>
80001e78:	00a00513          	li	a0,10
80001e7c:	958ff0ef          	jal	80000fd4 <putch>
80001e80:	00144503          	lbu	a0,1(s0)
80001e84:	00140413          	addi	s0,s0,1
80001e88:	fe051ae3          	bnez	a0,80001e7c <printf+0x510>
80001e8c:	00001417          	auipc	s0,0x1
80001e90:	b3c40413          	addi	s0,s0,-1220 # 800029c8 <_etext+0x818>
80001e94:	02000513          	li	a0,32
80001e98:	93cff0ef          	jal	80000fd4 <putch>
80001e9c:	00144503          	lbu	a0,1(s0)
80001ea0:	00140413          	addi	s0,s0,1
80001ea4:	fe051ae3          	bnez	a0,80001e98 <printf+0x52c>
80001ea8:	f0dff06f          	j	80001db4 <printf+0x448>
80001eac:	06500513          	li	a0,101
80001eb0:	924ff0ef          	jal	80000fd4 <putch>
80001eb4:	00a00513          	li	a0,10
80001eb8:	91cff0ef          	jal	80000fd4 <putch>
80001ebc:	00244503          	lbu	a0,2(s0)
80001ec0:	00000417          	auipc	s0,0x0
80001ec4:	3d440413          	addi	s0,s0,980 # 80002294 <_etext+0xe4>
80001ec8:	90cff0ef          	jal	80000fd4 <putch>
80001ecc:	00a00513          	li	a0,10
80001ed0:	904ff0ef          	jal	80000fd4 <putch>
80001ed4:	04100513          	li	a0,65
80001ed8:	8fcff0ef          	jal	80000fd4 <putch>
80001edc:	00144503          	lbu	a0,1(s0)
80001ee0:	00140413          	addi	s0,s0,1
80001ee4:	fe051ae3          	bnez	a0,80001ed8 <printf+0x56c>
80001ee8:	00001417          	auipc	s0,0x1
80001eec:	a6c40413          	addi	s0,s0,-1428 # 80002954 <_etext+0x7a4>
80001ef0:	00a00513          	li	a0,10
80001ef4:	8e0ff0ef          	jal	80000fd4 <putch>
80001ef8:	00144503          	lbu	a0,1(s0)
80001efc:	00140413          	addi	s0,s0,1
80001f00:	fe051ae3          	bnez	a0,80001ef4 <printf+0x588>
80001f04:	00001417          	auipc	s0,0x1
80001f08:	a6840413          	addi	s0,s0,-1432 # 8000296c <_etext+0x7bc>
80001f0c:	02000513          	li	a0,32
80001f10:	8c4ff0ef          	jal	80000fd4 <putch>
80001f14:	00144503          	lbu	a0,1(s0)
80001f18:	00140413          	addi	s0,s0,1
80001f1c:	fe051ae3          	bnez	a0,80001f10 <printf+0x5a4>
80001f20:	e95ff06f          	j	80001db4 <printf+0x448>

80001f24 <itoa>:
80001f24:	ff010113          	addi	sp,sp,-16
80001f28:	00112623          	sw	ra,12(sp)
80001f2c:	80000737          	lui	a4,0x80000
80001f30:	00058793          	mv	a5,a1
80001f34:	0ce50c63          	beq	a0,a4,8000200c <itoa+0xe8>
80001f38:	00050313          	mv	t1,a0
80001f3c:	0a050863          	beqz	a0,80001fec <itoa+0xc8>
80001f40:	41f55713          	srai	a4,a0,0x1f
80001f44:	00a74833          	xor	a6,a4,a0
80001f48:	40e80833          	sub	a6,a6,a4
80001f4c:	00000513          	li	a0,0
80001f50:	00900e13          	li	t3,9
80001f54:	02c865b3          	rem	a1,a6,a2
80001f58:	00050693          	mv	a3,a0
80001f5c:	00150513          	addi	a0,a0,1
80001f60:	0ff5f713          	zext.b	a4,a1
80001f64:	05770893          	addi	a7,a4,87 # 80000057 <main+0x47>
80001f68:	03070713          	addi	a4,a4,48
80001f6c:	0ff77713          	zext.b	a4,a4
80001f70:	00be5463          	bge	t3,a1,80001f78 <itoa+0x54>
80001f74:	0ff8f713          	zext.b	a4,a7
80001f78:	02c84833          	div	a6,a6,a2
80001f7c:	00a785b3          	add	a1,a5,a0
80001f80:	fee58fa3          	sb	a4,-1(a1) # ffff <_entry_offset+0xffff>
80001f84:	fc0818e3          	bnez	a6,80001f54 <itoa+0x30>
80001f88:	04034063          	bltz	t1,80001fc8 <itoa+0xa4>
80001f8c:	00058023          	sb	zero,0(a1)
80001f90:	40155593          	srai	a1,a0,0x1
80001f94:	06058463          	beqz	a1,80001ffc <itoa+0xd8>
80001f98:	00d78733          	add	a4,a5,a3
80001f9c:	00b785b3          	add	a1,a5,a1
80001fa0:	00074603          	lbu	a2,0(a4)
80001fa4:	0007c683          	lbu	a3,0(a5)
80001fa8:	00178793          	addi	a5,a5,1
80001fac:	fff70713          	addi	a4,a4,-1
80001fb0:	fec78fa3          	sb	a2,-1(a5)
80001fb4:	00d700a3          	sb	a3,1(a4)
80001fb8:	feb794e3          	bne	a5,a1,80001fa0 <itoa+0x7c>
80001fbc:	00c12083          	lw	ra,12(sp)
80001fc0:	01010113          	addi	sp,sp,16
80001fc4:	00008067          	ret
80001fc8:	00268513          	addi	a0,a3,2
80001fcc:	02d00713          	li	a4,45
80001fd0:	00e58023          	sb	a4,0(a1)
80001fd4:	00a78633          	add	a2,a5,a0
80001fd8:	00168713          	addi	a4,a3,1
80001fdc:	00060023          	sb	zero,0(a2)
80001fe0:	40155593          	srai	a1,a0,0x1
80001fe4:	00e78733          	add	a4,a5,a4
80001fe8:	fb5ff06f          	j	80001f9c <itoa+0x78>
80001fec:	00000597          	auipc	a1,0x0
80001ff0:	46c58593          	addi	a1,a1,1132 # 80002458 <_etext+0x2a8>
80001ff4:	00078513          	mv	a0,a5
80001ff8:	094000ef          	jal	8000208c <strcpy>
80001ffc:	00c12083          	lw	ra,12(sp)
80002000:	00100513          	li	a0,1
80002004:	01010113          	addi	sp,sp,16
80002008:	00008067          	ret
8000200c:	00001597          	auipc	a1,0x1
80002010:	ac458593          	addi	a1,a1,-1340 # 80002ad0 <_etext+0x920>
80002014:	00078513          	mv	a0,a5
80002018:	074000ef          	jal	8000208c <strcpy>
8000201c:	00b00513          	li	a0,11
80002020:	f9dff06f          	j	80001fbc <itoa+0x98>

80002024 <rand>:
80002024:	0000f697          	auipc	a3,0xf
80002028:	13c68693          	addi	a3,a3,316 # 80011160 <next>
8000202c:	0006a783          	lw	a5,0(a3)
80002030:	41c65737          	lui	a4,0x41c65
80002034:	e6d70713          	addi	a4,a4,-403 # 41c64e6d <_entry_offset+0x41c64e6d>
80002038:	02e787b3          	mul	a5,a5,a4
8000203c:	00003737          	lui	a4,0x3
80002040:	03970713          	addi	a4,a4,57 # 3039 <_entry_offset+0x3039>
80002044:	00e787b3          	add	a5,a5,a4
80002048:	00179513          	slli	a0,a5,0x1
8000204c:	00f6a023          	sw	a5,0(a3)
80002050:	01155513          	srli	a0,a0,0x11
80002054:	00008067          	ret

80002058 <strlen>:
80002058:	00050713          	mv	a4,a0
8000205c:	02050263          	beqz	a0,80002080 <strlen+0x28>
80002060:	00054783          	lbu	a5,0(a0)
80002064:	00000513          	li	a0,0
80002068:	02078063          	beqz	a5,80002088 <strlen+0x30>
8000206c:	00150513          	addi	a0,a0,1
80002070:	00a707b3          	add	a5,a4,a0
80002074:	0007c783          	lbu	a5,0(a5)
80002078:	fe079ae3          	bnez	a5,8000206c <strlen+0x14>
8000207c:	00008067          	ret
80002080:	00000513          	li	a0,0
80002084:	00008067          	ret
80002088:	00008067          	ret

8000208c <strcpy>:
8000208c:	02058663          	beqz	a1,800020b8 <strcpy+0x2c>
80002090:	02050463          	beqz	a0,800020b8 <strcpy+0x2c>
80002094:	0005c783          	lbu	a5,0(a1)
80002098:	00050713          	mv	a4,a0
8000209c:	00078c63          	beqz	a5,800020b4 <strcpy+0x28>
800020a0:	00f70023          	sb	a5,0(a4)
800020a4:	0015c783          	lbu	a5,1(a1)
800020a8:	00170713          	addi	a4,a4,1
800020ac:	00158593          	addi	a1,a1,1
800020b0:	fe0798e3          	bnez	a5,800020a0 <strcpy+0x14>
800020b4:	00070023          	sb	zero,0(a4)
800020b8:	00008067          	ret

800020bc <strcmp>:
800020bc:	02050e63          	beqz	a0,800020f8 <strcmp+0x3c>
800020c0:	02058c63          	beqz	a1,800020f8 <strcmp+0x3c>
800020c4:	00054703          	lbu	a4,0(a0)
800020c8:	00071c63          	bnez	a4,800020e0 <strcmp+0x24>
800020cc:	0540006f          	j	80002120 <strcmp+0x64>
800020d0:	04e79063          	bne	a5,a4,80002110 <strcmp+0x54>
800020d4:	00054703          	lbu	a4,0(a0)
800020d8:	02070463          	beqz	a4,80002100 <strcmp+0x44>
800020dc:	00068593          	mv	a1,a3
800020e0:	0005c783          	lbu	a5,0(a1)
800020e4:	00150513          	addi	a0,a0,1
800020e8:	00158693          	addi	a3,a1,1
800020ec:	fe0792e3          	bnez	a5,800020d0 <strcmp+0x14>
800020f0:	00100513          	li	a0,1
800020f4:	00008067          	ret
800020f8:	00000513          	li	a0,0
800020fc:	00008067          	ret
80002100:	0015c503          	lbu	a0,1(a1)
80002104:	00a03533          	snez	a0,a0
80002108:	40a00533          	neg	a0,a0
8000210c:	00008067          	ret
80002110:	00f73533          	sltu	a0,a4,a5
80002114:	40a00533          	neg	a0,a0
80002118:	00156513          	ori	a0,a0,1
8000211c:	00008067          	ret
80002120:	0005c503          	lbu	a0,0(a1)
80002124:	00a03533          	snez	a0,a0
80002128:	40a00533          	neg	a0,a0
8000212c:	00008067          	ret

80002130 <strncmp>:
80002130:	02050e63          	beqz	a0,8000216c <strncmp+0x3c>
80002134:	02058c63          	beqz	a1,8000216c <strncmp+0x3c>
80002138:	02060a63          	beqz	a2,8000216c <strncmp+0x3c>
8000213c:	00054783          	lbu	a5,0(a0)
80002140:	0005c703          	lbu	a4,0(a1)
80002144:	fff60613          	addi	a2,a2,-1
80002148:	02078663          	beqz	a5,80002174 <strncmp+0x44>
8000214c:	00150513          	addi	a0,a0,1
80002150:	02070263          	beqz	a4,80002174 <strncmp+0x44>
80002154:	00158593          	addi	a1,a1,1
80002158:	fee780e3          	beq	a5,a4,80002138 <strncmp+0x8>
8000215c:	00100513          	li	a0,1
80002160:	00e7f863          	bgeu	a5,a4,80002170 <strncmp+0x40>
80002164:	fff00513          	li	a0,-1
80002168:	00008067          	ret
8000216c:	00000513          	li	a0,0
80002170:	00008067          	ret
80002174:	00000513          	li	a0,0
80002178:	fee792e3          	bne	a5,a4,8000215c <strncmp+0x2c>
8000217c:	00008067          	ret

80002180 <memcpy>:
80002180:	02050663          	beqz	a0,800021ac <memcpy+0x2c>
80002184:	02058463          	beqz	a1,800021ac <memcpy+0x2c>
80002188:	02060263          	beqz	a2,800021ac <memcpy+0x2c>
8000218c:	02b50063          	beq	a0,a1,800021ac <memcpy+0x2c>
80002190:	00c50633          	add	a2,a0,a2
80002194:	00050793          	mv	a5,a0
80002198:	0005c703          	lbu	a4,0(a1)
8000219c:	00178793          	addi	a5,a5,1
800021a0:	00158593          	addi	a1,a1,1
800021a4:	fee78fa3          	sb	a4,-1(a5)
800021a8:	fec798e3          	bne	a5,a2,80002198 <memcpy+0x18>
800021ac:	00008067          	ret
